Archive member included because of file (symbol)

embedded-software\mcu-freertos\libfoxbms-os.a(cmsis_os.c.1.o)
                              embedded-software\mcu-secondary\src\general\main.c.1.o (osKernelStart)
embedded-software\mcu-freertos\libfoxbms-os.a(port.c.1.o)
                              embedded-software\mcu-freertos\libfoxbms-os.a(cmsis_os.c.1.o) (vPortEnterCritical)
embedded-software\mcu-freertos\libfoxbms-os.a(heap_4.c.1.o)
                              embedded-software\mcu-freertos\libfoxbms-os.a(cmsis_os.c.1.o) (pvPortMalloc)
embedded-software\mcu-freertos\libfoxbms-os.a(queue.c.1.o)
                              embedded-software\mcu-freertos\libfoxbms-os.a(cmsis_os.c.1.o) (xQueueGenericCreate)
embedded-software\mcu-freertos\libfoxbms-os.a(tasks.c.1.o)
                              embedded-software\mcu-freertos\libfoxbms-os.a(port.c.1.o) (pxCurrentTCB)
embedded-software\mcu-freertos\libfoxbms-os.a(timers.c.1.o)
                              embedded-software\mcu-freertos\libfoxbms-os.a(tasks.c.1.o) (xTimerCreateTimerTask)
embedded-software\mcu-freertos\libfoxbms-os.a(os.c.1.o)
                              embedded-software\mcu-secondary\src\general\main.c.1.o (os_boot)
embedded-software\mcu-freertos\libfoxbms-os.a(list.c.1.o)
                              embedded-software\mcu-freertos\libfoxbms-os.a(queue.c.1.o) (vListInitialise)
embedded-software\mcu-secondary\src\application\libfoxbms-application.a(appltask.c.1.o)
                              embedded-software\mcu-freertos\libfoxbms-os.a(os.c.1.o) (APPL_CreateMutex)
embedded-software\mcu-secondary\src\application\libfoxbms-application.a(appltask_cfg.c.1.o)
                              embedded-software\mcu-secondary\src\application\libfoxbms-application.a(appltask.c.1.o) (appl_tskdef_1ms)
embedded-software\mcu-secondary\src\application\libfoxbms-application.a(bms.c.1.o)
                              embedded-software\mcu-secondary\src\application\libfoxbms-application.a(appltask_cfg.c.1.o) (BMS_Trigger)
embedded-software\mcu-common\src\engine\libfoxbms-common-engine.a(database.c.1.o)
                              embedded-software\mcu-freertos\libfoxbms-os.a(os.c.1.o) (DATA_Task)
embedded-software\mcu-secondary\src\engine\libfoxbms-engine.a(database_cfg.c.1.o)
                              embedded-software\mcu-common\src\engine\libfoxbms-common-engine.a(database.c.1.o) (data_base_dev)
embedded-software\mcu-secondary\src\engine\libfoxbms-engine.a(diag_cfg.c.1.o)
                              embedded-software\mcu-secondary\src\general\main.c.1.o (diag_dev)
embedded-software\mcu-secondary\src\engine\libfoxbms-engine.a(enginetask_cfg.c.1.o)
                              embedded-software\mcu-freertos\libfoxbms-os.a(os.c.1.o) (eng_tskdef_cyclic_1ms)
embedded-software\mcu-secondary\src\engine\libfoxbms-engine.a(diag.c.1.o)
                              embedded-software\mcu-secondary\src\general\config\stm32f4xx_it.c.1.o (diag_fc)
embedded-software\mcu-secondary\src\engine\libfoxbms-engine.a(enginetask.c.1.o)
                              embedded-software\mcu-freertos\libfoxbms-os.a(os.c.1.o) (ENG_Init)
embedded-software\mcu-secondary\src\engine\libfoxbms-engine.a(sys.c.1.o)
                              embedded-software\mcu-secondary\src\engine\libfoxbms-engine.a(enginetask.c.1.o) (SYS_SetStateRequest)
embedded-software\mcu-secondary\src\module\libfoxbms-module.a(adc_ex.c.1.o)
                              embedded-software\mcu-secondary\src\engine\libfoxbms-engine.a(enginetask.c.1.o) (ADC_Ctrl)
embedded-software\mcu-secondary\src\module\libfoxbms-module.a(adc_cfg.c.1.o)
                              embedded-software\mcu-secondary\src\general\config\stm32f4xx_it.c.1.o (adc_devices)
embedded-software\mcu-secondary\src\module\libfoxbms-module.a(bkpsram_cfg.c.1.o)
                              embedded-software\mcu-secondary\src\general\main.c.1.o (main_state)
embedded-software\mcu-secondary\src\module\libfoxbms-module.a(timer.c.1.o)
                              embedded-software\mcu-secondary\src\general\main.c.1.o (TIM_Init)
embedded-software\mcu-secondary\src\module\libfoxbms-module.a(timer_cfg.c.1.o)
                              embedded-software\mcu-secondary\src\module\libfoxbms-module.a(timer.c.1.o) (htim3)
embedded-software\mcu-common\src\module\libfoxbms-common-module.a(adc.c.1.o)
                              embedded-software\mcu-secondary\src\general\main.c.1.o (ADC_Init)
embedded-software\mcu-common\src\module\libfoxbms-common-module.a(can.c.1.o)
                              embedded-software\mcu-freertos\libfoxbms-os.a(os.c.1.o) (CAN_Init)
embedded-software\mcu-common\src\module\libfoxbms-common-module.a(chksum.c.1.o)
                              embedded-software\mcu-secondary\src\general\main.c.1.o (chk_status)
embedded-software\mcu-common\src\module\libfoxbms-common-module.a(dma.c.1.o)
                              embedded-software\mcu-secondary\src\general\main.c.1.o (DMA_Init)
embedded-software\mcu-common\src\module\libfoxbms-common-module.a(interlock.c.1.o)
                              embedded-software\mcu-secondary\src\engine\libfoxbms-engine.a(sys.c.1.o) (ILCK_GetState)
embedded-software\mcu-common\src\module\libfoxbms-common-module.a(io.c.1.o)
                              embedded-software\mcu-secondary\src\general\main.c.1.o (IO_Init)
embedded-software\mcu-common\src\module\libfoxbms-common-module.a(portcheck.c.1.o)
                              embedded-software\mcu-common\src\module\libfoxbms-common-module.a(io.c.1.o) (GPIO_Check)
embedded-software\mcu-common\src\module\libfoxbms-common-module.a(meas.c.1.o)
                              embedded-software\mcu-secondary\src\engine\libfoxbms-engine.a(enginetask.c.1.o) (MEAS_Ctrl)
embedded-software\mcu-common\src\module\libfoxbms-common-module.a(ltc.c.1.o)
                              embedded-software\mcu-common\src\module\libfoxbms-common-module.a(meas.c.1.o) (LTC_SetStateRequest)
embedded-software\mcu-common\src\module\libfoxbms-common-module.a(ltc_pec.c.1.o)
                              embedded-software\mcu-common\src\module\libfoxbms-common-module.a(ltc.c.1.o) (LTC_pec15_calc)
embedded-software\mcu-common\src\module\libfoxbms-common-module.a(mcu.c.1.o)
                              embedded-software\mcu-secondary\src\general\main.c.1.o (mcu_unique_deviceID)
embedded-software\mcu-common\src\module\libfoxbms-common-module.a(rcc.c.1.o)
                              embedded-software\mcu-secondary\src\general\main.c.1.o (RCC_ClockConfig)
embedded-software\mcu-common\src\module\libfoxbms-common-module.a(rtc.c.1.o)
                              embedded-software\mcu-secondary\src\engine\libfoxbms-engine.a(diag.c.1.o) (hrtc)
embedded-software\mcu-common\src\module\libfoxbms-common-module.a(bkpsram.c.1.o)
                              embedded-software\mcu-secondary\src\general\main.c.1.o (BKP_SRAM_Init)
embedded-software\mcu-common\src\module\libfoxbms-common-module.a(spi.c.1.o)
                              embedded-software\mcu-secondary\src\general\main.c.1.o (SPI_Init)
embedded-software\mcu-common\src\module\libfoxbms-common-module.a(led.c.1.o)
                              embedded-software\mcu-secondary\src\general\main.c.1.o (LED_Init)
embedded-software\mcu-common\src\module\libfoxbms-common-module.a(wdg.c.1.o)
                              embedded-software\mcu-secondary\src\general\main.c.1.o (WDG_Init)
embedded-software\mcu-common\src\module\libfoxbms-common-module.a(dma_cfg.c.1.o)
                              embedded-software\mcu-secondary\src\general\config\stm32f4xx_it.c.1.o (dma_devices)
embedded-software\mcu-common\src\module\libfoxbms-common-module.a(interlock_cfg.c.1.o)
                              embedded-software\mcu-common\src\module\libfoxbms-common-module.a(interlock.c.1.o) (ilck_interlock_config)
embedded-software\mcu-common\src\module\libfoxbms-common-module.a(io_cfg.c.1.o)
                              embedded-software\mcu-secondary\src\general\main.c.1.o (io_cfg)
embedded-software\mcu-common\src\module\libfoxbms-common-module.a(ltc_cfg.c.1.o)
                              embedded-software\mcu-common\src\module\libfoxbms-common-module.a(ltc.c.1.o) (ltc_mux_seq)
embedded-software\mcu-common\src\module\libfoxbms-common-module.a(rcc_cfg.c.1.o)
                              embedded-software\mcu-common\src\module\libfoxbms-common-module.a(rcc.c.1.o) (RCC_OscInitStruct)
embedded-software\mcu-common\src\module\libfoxbms-common-module.a(rtc_cfg.c.1.o)
                              embedded-software\mcu-common\src\module\libfoxbms-common-module.a(rtc.c.1.o) (rtc_cfg)
embedded-software\mcu-common\src\module\libfoxbms-common-module.a(can_cfg.c.1.o)
                              embedded-software\mcu-secondary\src\general\config\stm32f4xx_it.c.1.o (hcan0)
embedded-software\mcu-common\src\module\libfoxbms-common-module.a(spi_cfg.c.1.o)
                              embedded-software\mcu-secondary\src\general\config\stm32f4xx_it.c.1.o (spi_devices)
embedded-software\mcu-hal\STM32F4xx_HAL_Driver\libfoxbms-stmhal.a(stm32f4xx_hal.c.1.o)
                              embedded-software\mcu-secondary\src\general\main.c.1.o (HAL_Init)
embedded-software\mcu-hal\STM32F4xx_HAL_Driver\libfoxbms-stmhal.a(stm32f4xx_hal_adc.c.1.o)
                              embedded-software\mcu-common\src\module\libfoxbms-common-module.a(adc.c.1.o) (HAL_ADC_Init)
embedded-software\mcu-hal\STM32F4xx_HAL_Driver\libfoxbms-stmhal.a(stm32f4xx_hal_adc_ex.c.1.o)
                              embedded-software\mcu-hal\STM32F4xx_HAL_Driver\libfoxbms-stmhal.a(stm32f4xx_hal_adc.c.1.o) (HAL_ADCEx_InjectedConvCpltCallback)
embedded-software\mcu-hal\STM32F4xx_HAL_Driver\libfoxbms-stmhal.a(stm32f4xx_hal_can.c.1.o)
                              embedded-software\mcu-common\src\module\libfoxbms-common-module.a(can.c.1.o) (HAL_CAN_Init)
embedded-software\mcu-hal\STM32F4xx_HAL_Driver\libfoxbms-stmhal.a(stm32f4xx_hal_cortex.c.1.o)
                              embedded-software\mcu-secondary\src\general\nvic.c.1.o (HAL_NVIC_SetPriorityGrouping)
embedded-software\mcu-hal\STM32F4xx_HAL_Driver\libfoxbms-stmhal.a(stm32f4xx_hal_dma.c.1.o)
                              embedded-software\mcu-common\src\module\libfoxbms-common-module.a(dma.c.1.o) (HAL_DMA_Init)
embedded-software\mcu-hal\STM32F4xx_HAL_Driver\libfoxbms-stmhal.a(stm32f4xx_hal_gpio.c.1.o)
                              embedded-software\mcu-common\src\module\libfoxbms-common-module.a(io.c.1.o) (HAL_GPIO_Init)
embedded-software\mcu-hal\STM32F4xx_HAL_Driver\libfoxbms-stmhal.a(stm32f4xx_hal_iwdg.c.1.o)
                              embedded-software\mcu-common\src\module\libfoxbms-common-module.a(wdg.c.1.o) (HAL_IWDG_Init)
embedded-software\mcu-hal\STM32F4xx_HAL_Driver\libfoxbms-stmhal.a(stm32f4xx_hal_pwr.c.1.o)
                              embedded-software\mcu-common\src\module\libfoxbms-common-module.a(bkpsram.c.1.o) (HAL_PWR_EnableBkUpAccess)
embedded-software\mcu-hal\STM32F4xx_HAL_Driver\libfoxbms-stmhal.a(stm32f4xx_hal_pwr_ex.c.1.o)
                              embedded-software\mcu-common\src\module\libfoxbms-common-module.a(bkpsram.c.1.o) (HAL_PWREx_EnableBkUpReg)
embedded-software\mcu-hal\STM32F4xx_HAL_Driver\libfoxbms-stmhal.a(stm32f4xx_hal_rcc.c.1.o)
                              embedded-software\mcu-common\src\module\libfoxbms-common-module.a(rcc.c.1.o) (HAL_RCC_OscConfig)
embedded-software\mcu-hal\STM32F4xx_HAL_Driver\libfoxbms-stmhal.a(stm32f4xx_hal_rcc_ex.c.1.o)
                              embedded-software\mcu-common\src\module\libfoxbms-common-module.a(rtc.c.1.o) (HAL_RCCEx_PeriphCLKConfig)
embedded-software\mcu-hal\STM32F4xx_HAL_Driver\libfoxbms-stmhal.a(stm32f4xx_hal_rtc.c.1.o)
                              embedded-software\mcu-common\src\module\libfoxbms-common-module.a(rtc.c.1.o) (HAL_RTC_Init)
embedded-software\mcu-hal\STM32F4xx_HAL_Driver\libfoxbms-stmhal.a(stm32f4xx_hal_rtc_ex.c.1.o)
                              embedded-software\mcu-common\src\module\libfoxbms-common-module.a(rtc.c.1.o) (HAL_RTCEx_DeactivateWakeUpTimer)
embedded-software\mcu-hal\STM32F4xx_HAL_Driver\libfoxbms-stmhal.a(stm32f4xx_hal_spi.c.1.o)
                              embedded-software\mcu-common\src\module\libfoxbms-common-module.a(spi.c.1.o) (HAL_SPI_Init)
embedded-software\mcu-hal\STM32F4xx_HAL_Driver\libfoxbms-stmhal.a(stm32f4xx_hal_tim.c.1.o)
                              embedded-software\mcu-secondary\src\module\libfoxbms-module.a(timer.c.1.o) (HAL_TIM_Base_Init)
c:/foxconda/library/bin/../lib/gcc/arm-none-eabi/4.9.3/armv7e-m/softfp\libgcc.a(_arm_addsubdf3.o)
                              embedded-software\mcu-secondary\src\module\libfoxbms-module.a(adc_ex.c.1.o) (__aeabi_dsub)
c:/foxconda/library/bin/../lib/gcc/arm-none-eabi/4.9.3/armv7e-m/softfp\libgcc.a(_arm_muldivdf3.o)
                              embedded-software\mcu-secondary\src\module\libfoxbms-module.a(adc_ex.c.1.o) (__aeabi_dmul)
c:/foxconda/library/bin/../lib/gcc/arm-none-eabi/4.9.3/armv7e-m/softfp\libgcc.a(_arm_fixunsdfsi.o)
                              embedded-software\mcu-common\src\module\libfoxbms-common-module.a(ltc.c.1.o) (__aeabi_d2uiz)
c:/foxconda/library/bin/../lib/gcc/arm-none-eabi/4.9.3/armv7e-m/softfp\libgcc.a(_arm_truncdfsf2.o)
                              embedded-software\mcu-secondary\src\module\libfoxbms-module.a(adc_ex.c.1.o) (__aeabi_d2f)
c:/foxconda/library/bin/../lib/gcc/arm-none-eabi/4.9.3/../../../../arm-none-eabi/lib/armv7e-m/softfp\libc_nano.a(lib_a-exit.o)
                              c:/foxconda/library/bin/../lib/gcc/arm-none-eabi/4.9.3/../../../../arm-none-eabi/lib/armv7e-m/softfp/crt0.o (exit)
c:/foxconda/library/bin/../lib/gcc/arm-none-eabi/4.9.3/../../../../arm-none-eabi/lib/armv7e-m/softfp\libc_nano.a(lib_a-impure.o)
                              c:/foxconda/library/bin/../lib/gcc/arm-none-eabi/4.9.3/../../../../arm-none-eabi/lib/armv7e-m/softfp\libc_nano.a(lib_a-exit.o) (_global_impure_ptr)
c:/foxconda/library/bin/../lib/gcc/arm-none-eabi/4.9.3/../../../../arm-none-eabi/lib/armv7e-m/softfp\libc_nano.a(lib_a-init.o)
                              c:/foxconda/library/bin/../lib/gcc/arm-none-eabi/4.9.3/../../../../arm-none-eabi/lib/armv7e-m/softfp/crt0.o (__libc_init_array)
c:/foxconda/library/bin/../lib/gcc/arm-none-eabi/4.9.3/../../../../arm-none-eabi/lib/armv7e-m/softfp\libc_nano.a(lib_a-memcpy.o)
                              embedded-software\mcu-freertos\libfoxbms-os.a(queue.c.1.o) (memcpy)
c:/foxconda/library/bin/../lib/gcc/arm-none-eabi/4.9.3/../../../../arm-none-eabi/lib/armv7e-m/softfp\libc_nano.a(lib_a-memset.o)
                              c:/foxconda/library/bin/../lib/gcc/arm-none-eabi/4.9.3/../../../../arm-none-eabi/lib/armv7e-m/softfp/crt0.o (memset)
c:/foxconda/library/bin/../lib/gcc/arm-none-eabi/4.9.3/../../../../arm-none-eabi/lib/armv7e-m/softfp\libnosys.a(_exit.o)
                              c:/foxconda/library/bin/../lib/gcc/arm-none-eabi/4.9.3/../../../../arm-none-eabi/lib/armv7e-m/softfp\libc_nano.a(lib_a-exit.o) (_exit)

Discarded input sections

 .text          0x00000000        0x0 c:/foxconda/library/bin/../lib/gcc/arm-none-eabi/4.9.3/armv7e-m/softfp/crti.o
 .data          0x00000000        0x0 c:/foxconda/library/bin/../lib/gcc/arm-none-eabi/4.9.3/armv7e-m/softfp/crti.o
 .bss           0x00000000        0x0 c:/foxconda/library/bin/../lib/gcc/arm-none-eabi/4.9.3/armv7e-m/softfp/crti.o
 .data          0x00000000        0x4 c:/foxconda/library/bin/../lib/gcc/arm-none-eabi/4.9.3/armv7e-m/softfp/crtbegin.o
 .text          0x00000000       0x74 c:/foxconda/library/bin/../lib/gcc/arm-none-eabi/4.9.3/../../../../arm-none-eabi/lib/armv7e-m/softfp/crt0.o
 .data          0x00000000        0x0 c:/foxconda/library/bin/../lib/gcc/arm-none-eabi/4.9.3/../../../../arm-none-eabi/lib/armv7e-m/softfp/crt0.o
 .bss           0x00000000        0x0 c:/foxconda/library/bin/../lib/gcc/arm-none-eabi/4.9.3/../../../../arm-none-eabi/lib/armv7e-m/softfp/crt0.o
 .ARM.extab     0x00000000        0x0 c:/foxconda/library/bin/../lib/gcc/arm-none-eabi/4.9.3/../../../../arm-none-eabi/lib/armv7e-m/softfp/crt0.o
 .ARM.exidx     0x00000000        0x8 c:/foxconda/library/bin/../lib/gcc/arm-none-eabi/4.9.3/../../../../arm-none-eabi/lib/armv7e-m/softfp/crt0.o
 .ARM.attributes
                0x00000000       0x20 c:/foxconda/library/bin/../lib/gcc/arm-none-eabi/4.9.3/../../../../arm-none-eabi/lib/armv7e-m/softfp/crt0.o
 .text          0x00000000        0x0 embedded-software\mcu-secondary\src\general\config\nvic_cfg.c.1.o
 .data          0x00000000        0x0 embedded-software\mcu-secondary\src\general\config\nvic_cfg.c.1.o
 .bss           0x00000000        0x0 embedded-software\mcu-secondary\src\general\config\nvic_cfg.c.1.o
 .text          0x00000000        0x0 embedded-software\mcu-secondary\src\general\config\stm32f4xx_hal_msp.c.1.o
 .data          0x00000000        0x0 embedded-software\mcu-secondary\src\general\config\stm32f4xx_hal_msp.c.1.o
 .bss           0x00000000        0x0 embedded-software\mcu-secondary\src\general\config\stm32f4xx_hal_msp.c.1.o
 .text.HAL_MspDeInit
                0x00000000        0xc embedded-software\mcu-secondary\src\general\config\stm32f4xx_hal_msp.c.1.o
 .text.HAL_PPP_MspInit
                0x00000000        0xc embedded-software\mcu-secondary\src\general\config\stm32f4xx_hal_msp.c.1.o
 .text.HAL_PPP_MspDeInit
                0x00000000        0xc embedded-software\mcu-secondary\src\general\config\stm32f4xx_hal_msp.c.1.o
 .text.HAL_SPI_MspDeInit
                0x00000000       0x54 embedded-software\mcu-secondary\src\general\config\stm32f4xx_hal_msp.c.1.o
 .text.HAL_UART_MspInit
                0x00000000       0x6c embedded-software\mcu-secondary\src\general\config\stm32f4xx_hal_msp.c.1.o
 .text          0x00000000        0x0 embedded-software\mcu-secondary\src\general\config\stm32f4xx_it.c.1.o
 .data          0x00000000        0x0 embedded-software\mcu-secondary\src\general\config\stm32f4xx_it.c.1.o
 .bss           0x00000000        0x0 embedded-software\mcu-secondary\src\general\config\stm32f4xx_it.c.1.o
 .text          0x00000000        0x0 embedded-software\mcu-secondary\src\general\config\system_stm32f4xx.c.1.o
 .data          0x00000000        0x0 embedded-software\mcu-secondary\src\general\config\system_stm32f4xx.c.1.o
 .bss           0x00000000        0x0 embedded-software\mcu-secondary\src\general\config\system_stm32f4xx.c.1.o
 .rodata.AHBPrescTable
                0x00000000       0x10 embedded-software\mcu-secondary\src\general\config\system_stm32f4xx.c.1.o
 .text.SystemCoreClockUpdate
                0x00000000       0xf8 embedded-software\mcu-secondary\src\general\config\system_stm32f4xx.c.1.o
 .text          0x00000000        0x0 embedded-software\mcu-secondary\src\general\main.c.1.o
 .data          0x00000000        0x0 embedded-software\mcu-secondary\src\general\main.c.1.o
 .bss           0x00000000        0x0 embedded-software\mcu-secondary\src\general\main.c.1.o
 .text          0x00000000        0x0 embedded-software\mcu-secondary\src\general\nvic.c.1.o
 .data          0x00000000        0x0 embedded-software\mcu-secondary\src\general\nvic.c.1.o
 .bss           0x00000000        0x0 embedded-software\mcu-secondary\src\general\nvic.c.1.o
 .text.NVIC_EnableInterrupts
                0x00000000       0x64 embedded-software\mcu-secondary\src\general\nvic.c.1.o
 .text.NVIC_DisableInterrupt
                0x00000000       0x64 embedded-software\mcu-secondary\src\general\nvic.c.1.o
 .text          0x00000000        0x0 embedded-software\mcu-secondary\src\general\version.c.1.o
 .data          0x00000000        0x0 embedded-software\mcu-secondary\src\general\version.c.1.o
 .bss           0x00000000        0x0 embedded-software\mcu-secondary\src\general\version.c.1.o
 .text          0x00000000       0x14 embedded-software\mcu-secondary\src\general\config\startup_stm32f429xx.o
 .data          0x00000000        0x0 embedded-software\mcu-secondary\src\general\config\startup_stm32f429xx.o
 .bss           0x00000000        0x0 embedded-software\mcu-secondary\src\general\config\startup_stm32f429xx.o
 .text          0x00000000        0x0 embedded-software\mcu-freertos\libfoxbms-os.a(cmsis_os.c.1.o)
 .data          0x00000000        0x0 embedded-software\mcu-freertos\libfoxbms-os.a(cmsis_os.c.1.o)
 .bss           0x00000000        0x0 embedded-software\mcu-freertos\libfoxbms-os.a(cmsis_os.c.1.o)
 .text.makeCmsisPriority
                0x00000000       0x2c embedded-software\mcu-freertos\libfoxbms-os.a(cmsis_os.c.1.o)
 .text.osKernelRunning
                0x00000000       0x18 embedded-software\mcu-freertos\libfoxbms-os.a(cmsis_os.c.1.o)
 .text.osThreadGetId
                0x00000000       0x10 embedded-software\mcu-freertos\libfoxbms-os.a(cmsis_os.c.1.o)
 .text.osThreadTerminate
                0x00000000       0x18 embedded-software\mcu-freertos\libfoxbms-os.a(cmsis_os.c.1.o)
 .text.osThreadYield
                0x00000000       0x24 embedded-software\mcu-freertos\libfoxbms-os.a(cmsis_os.c.1.o)
 .text.osThreadSetPriority
                0x00000000       0x2c embedded-software\mcu-freertos\libfoxbms-os.a(cmsis_os.c.1.o)
 .text.osThreadGetPriority
                0x00000000       0x40 embedded-software\mcu-freertos\libfoxbms-os.a(cmsis_os.c.1.o)
 .text.osDelay  0x00000000       0x28 embedded-software\mcu-freertos\libfoxbms-os.a(cmsis_os.c.1.o)
 .rodata        0x00000000        0x1 embedded-software\mcu-freertos\libfoxbms-os.a(cmsis_os.c.1.o)
 .text.osTimerCreate
                0x00000000       0x38 embedded-software\mcu-freertos\libfoxbms-os.a(cmsis_os.c.1.o)
 .text.osTimerStart
                0x00000000       0x8c embedded-software\mcu-freertos\libfoxbms-os.a(cmsis_os.c.1.o)
 .text.osTimerStop
                0x00000000       0x78 embedded-software\mcu-freertos\libfoxbms-os.a(cmsis_os.c.1.o)
 .text.osTimerDelete
                0x00000000       0x40 embedded-software\mcu-freertos\libfoxbms-os.a(cmsis_os.c.1.o)
 .text.osSignalSet
                0x00000000       0x74 embedded-software\mcu-freertos\libfoxbms-os.a(cmsis_os.c.1.o)
 .text.osSignalWait
                0x00000000       0x9c embedded-software\mcu-freertos\libfoxbms-os.a(cmsis_os.c.1.o)
 .text.osMutexCreate
                0x00000000       0x18 embedded-software\mcu-freertos\libfoxbms-os.a(cmsis_os.c.1.o)
 .text.osMutexWait
                0x00000000       0xa0 embedded-software\mcu-freertos\libfoxbms-os.a(cmsis_os.c.1.o)
 .text.osMutexRelease
                0x00000000       0x6c embedded-software\mcu-freertos\libfoxbms-os.a(cmsis_os.c.1.o)
 .text.osMutexDelete
                0x00000000       0x28 embedded-software\mcu-freertos\libfoxbms-os.a(cmsis_os.c.1.o)
 .text.osSemaphoreCreate
                0x00000000       0x48 embedded-software\mcu-freertos\libfoxbms-os.a(cmsis_os.c.1.o)
 .text.osSemaphoreWait
                0x00000000       0xa0 embedded-software\mcu-freertos\libfoxbms-os.a(cmsis_os.c.1.o)
 .text.osSemaphoreRelease
                0x00000000       0x6c embedded-software\mcu-freertos\libfoxbms-os.a(cmsis_os.c.1.o)
 .text.osSemaphoreDelete
                0x00000000       0x28 embedded-software\mcu-freertos\libfoxbms-os.a(cmsis_os.c.1.o)
 .text.osPoolCreate
                0x00000000       0xbc embedded-software\mcu-freertos\libfoxbms-os.a(cmsis_os.c.1.o)
 .text.osPoolAlloc
                0x00000000       0xc4 embedded-software\mcu-freertos\libfoxbms-os.a(cmsis_os.c.1.o)
 .text.osPoolCAlloc
                0x00000000       0x2c embedded-software\mcu-freertos\libfoxbms-os.a(cmsis_os.c.1.o)
 .text.osPoolFree
                0x00000000       0x84 embedded-software\mcu-freertos\libfoxbms-os.a(cmsis_os.c.1.o)
 .text.osMessageCreate
                0x00000000       0x28 embedded-software\mcu-freertos\libfoxbms-os.a(cmsis_os.c.1.o)
 .text.osMessagePut
                0x00000000       0x88 embedded-software\mcu-freertos\libfoxbms-os.a(cmsis_os.c.1.o)
 .text.osMessageGet
                0x00000000       0xec embedded-software\mcu-freertos\libfoxbms-os.a(cmsis_os.c.1.o)
 .text.osMailCreate
                0x00000000       0xb4 embedded-software\mcu-freertos\libfoxbms-os.a(cmsis_os.c.1.o)
 .text.osMailAlloc
                0x00000000       0x2c embedded-software\mcu-freertos\libfoxbms-os.a(cmsis_os.c.1.o)
 .text.osMailCAlloc
                0x00000000       0x40 embedded-software\mcu-freertos\libfoxbms-os.a(cmsis_os.c.1.o)
 .text.osMailPut
                0x00000000       0x84 embedded-software\mcu-freertos\libfoxbms-os.a(cmsis_os.c.1.o)
 .text.osMailGet
                0x00000000       0xf0 embedded-software\mcu-freertos\libfoxbms-os.a(cmsis_os.c.1.o)
 .text.osMailFree
                0x00000000       0x2c embedded-software\mcu-freertos\libfoxbms-os.a(cmsis_os.c.1.o)
 .text.osThreadSuspend
                0x00000000       0x18 embedded-software\mcu-freertos\libfoxbms-os.a(cmsis_os.c.1.o)
 .text.osThreadResume
                0x00000000       0x44 embedded-software\mcu-freertos\libfoxbms-os.a(cmsis_os.c.1.o)
 .text.osThreadSuspendAll
                0x00000000       0x10 embedded-software\mcu-freertos\libfoxbms-os.a(cmsis_os.c.1.o)
 .text.osThreadResumeAll
                0x00000000       0x18 embedded-software\mcu-freertos\libfoxbms-os.a(cmsis_os.c.1.o)
 .text.osThreadList
                0x00000000       0x18 embedded-software\mcu-freertos\libfoxbms-os.a(cmsis_os.c.1.o)
 .text.osMessagePeek
                0x00000000       0x98 embedded-software\mcu-freertos\libfoxbms-os.a(cmsis_os.c.1.o)
 .text.osRecursiveMutexCreate
                0x00000000       0x18 embedded-software\mcu-freertos\libfoxbms-os.a(cmsis_os.c.1.o)
 .text.osRecursiveMutexRelease
                0x00000000       0x28 embedded-software\mcu-freertos\libfoxbms-os.a(cmsis_os.c.1.o)
 .text.osRecursiveMutexWait
                0x00000000       0x58 embedded-software\mcu-freertos\libfoxbms-os.a(cmsis_os.c.1.o)
 .text          0x00000000        0x0 embedded-software\mcu-freertos\libfoxbms-os.a(port.c.1.o)
 .data          0x00000000        0x0 embedded-software\mcu-freertos\libfoxbms-os.a(port.c.1.o)
 .bss           0x00000000        0x0 embedded-software\mcu-freertos\libfoxbms-os.a(port.c.1.o)
 .rodata.pcInterruptPriorityRegisters
                0x00000000        0x4 embedded-software\mcu-freertos\libfoxbms-os.a(port.c.1.o)
 .text.vPortEndScheduler
                0x00000000       0x1c embedded-software\mcu-freertos\libfoxbms-os.a(port.c.1.o)
 .text          0x00000000        0x0 embedded-software\mcu-freertos\libfoxbms-os.a(heap_4.c.1.o)
 .data          0x00000000        0x0 embedded-software\mcu-freertos\libfoxbms-os.a(heap_4.c.1.o)
 .bss           0x00000000        0x0 embedded-software\mcu-freertos\libfoxbms-os.a(heap_4.c.1.o)
 .rodata.xHeapStructSize
                0x00000000        0x4 embedded-software\mcu-freertos\libfoxbms-os.a(heap_4.c.1.o)
 .text.xPortGetFreeHeapSize
                0x00000000       0x18 embedded-software\mcu-freertos\libfoxbms-os.a(heap_4.c.1.o)
 .text.xPortGetMinimumEverFreeHeapSize
                0x00000000       0x18 embedded-software\mcu-freertos\libfoxbms-os.a(heap_4.c.1.o)
 .text.vPortInitialiseBlocks
                0x00000000        0xc embedded-software\mcu-freertos\libfoxbms-os.a(heap_4.c.1.o)
 .text          0x00000000        0x0 embedded-software\mcu-freertos\libfoxbms-os.a(queue.c.1.o)
 .data          0x00000000        0x0 embedded-software\mcu-freertos\libfoxbms-os.a(queue.c.1.o)
 .bss           0x00000000        0x0 embedded-software\mcu-freertos\libfoxbms-os.a(queue.c.1.o)
 .text.xQueueGiveMutexRecursive
                0x00000000       0x58 embedded-software\mcu-freertos\libfoxbms-os.a(queue.c.1.o)
 .text.xQueueTakeMutexRecursive
                0x00000000       0x60 embedded-software\mcu-freertos\libfoxbms-os.a(queue.c.1.o)
 .text.xQueueCreateCountingSemaphore
                0x00000000       0x48 embedded-software\mcu-freertos\libfoxbms-os.a(queue.c.1.o)
 .text.xQueueGiveFromISR
                0x00000000       0xe4 embedded-software\mcu-freertos\libfoxbms-os.a(queue.c.1.o)
 .text.xQueueReceiveFromISR
                0x00000000       0xdc embedded-software\mcu-freertos\libfoxbms-os.a(queue.c.1.o)
 .text.xQueuePeekFromISR
                0x00000000       0xa0 embedded-software\mcu-freertos\libfoxbms-os.a(queue.c.1.o)
 .text.uxQueueMessagesWaiting
                0x00000000       0x2c embedded-software\mcu-freertos\libfoxbms-os.a(queue.c.1.o)
 .text.uxQueueSpacesAvailable
                0x00000000       0x38 embedded-software\mcu-freertos\libfoxbms-os.a(queue.c.1.o)
 .text.uxQueueMessagesWaitingFromISR
                0x00000000       0x24 embedded-software\mcu-freertos\libfoxbms-os.a(queue.c.1.o)
 .text.vQueueDelete
                0x00000000       0x2c embedded-software\mcu-freertos\libfoxbms-os.a(queue.c.1.o)
 .text.uxQueueGetQueueNumber
                0x00000000       0x18 embedded-software\mcu-freertos\libfoxbms-os.a(queue.c.1.o)
 .text.vQueueSetQueueNumber
                0x00000000       0x1c embedded-software\mcu-freertos\libfoxbms-os.a(queue.c.1.o)
 .text.ucQueueGetQueueType
                0x00000000       0x1c embedded-software\mcu-freertos\libfoxbms-os.a(queue.c.1.o)
 .text.xQueueIsQueueEmptyFromISR
                0x00000000       0x30 embedded-software\mcu-freertos\libfoxbms-os.a(queue.c.1.o)
 .text.xQueueIsQueueFullFromISR
                0x00000000       0x34 embedded-software\mcu-freertos\libfoxbms-os.a(queue.c.1.o)
 .text.pcQueueGetName
                0x00000000       0x4c embedded-software\mcu-freertos\libfoxbms-os.a(queue.c.1.o)
 .text.vQueueUnregisterQueue
                0x00000000       0x50 embedded-software\mcu-freertos\libfoxbms-os.a(queue.c.1.o)
 .text          0x00000000        0x0 embedded-software\mcu-freertos\libfoxbms-os.a(tasks.c.1.o)
 .data          0x00000000        0x0 embedded-software\mcu-freertos\libfoxbms-os.a(tasks.c.1.o)
 .bss           0x00000000        0x0 embedded-software\mcu-freertos\libfoxbms-os.a(tasks.c.1.o)
 .text.vTaskDelete
                0x00000000      0x10c embedded-software\mcu-freertos\libfoxbms-os.a(tasks.c.1.o)
 .text.vTaskDelay
                0x00000000       0x58 embedded-software\mcu-freertos\libfoxbms-os.a(tasks.c.1.o)
 .text.eTaskGetState
                0x00000000       0xa4 embedded-software\mcu-freertos\libfoxbms-os.a(tasks.c.1.o)
 .text.uxTaskPriorityGet
                0x00000000       0x34 embedded-software\mcu-freertos\libfoxbms-os.a(tasks.c.1.o)
 .text.uxTaskPriorityGetFromISR
                0x00000000       0x58 embedded-software\mcu-freertos\libfoxbms-os.a(tasks.c.1.o)
 .text.vTaskPrioritySet
                0x00000000      0x150 embedded-software\mcu-freertos\libfoxbms-os.a(tasks.c.1.o)
 .text.vTaskSuspend
                0x00000000      0x100 embedded-software\mcu-freertos\libfoxbms-os.a(tasks.c.1.o)
 .text.prvTaskIsTaskSuspended
                0x00000000       0x64 embedded-software\mcu-freertos\libfoxbms-os.a(tasks.c.1.o)
 .text.vTaskResume
                0x00000000       0xac embedded-software\mcu-freertos\libfoxbms-os.a(tasks.c.1.o)
 .text.xTaskResumeFromISR
                0x00000000       0xd4 embedded-software\mcu-freertos\libfoxbms-os.a(tasks.c.1.o)
 .text.vTaskEndScheduler
                0x00000000       0x2c embedded-software\mcu-freertos\libfoxbms-os.a(tasks.c.1.o)
 .text.uxTaskGetNumberOfTasks
                0x00000000       0x18 embedded-software\mcu-freertos\libfoxbms-os.a(tasks.c.1.o)
 .text.pcTaskGetName
                0x00000000       0x34 embedded-software\mcu-freertos\libfoxbms-os.a(tasks.c.1.o)
 .text.uxTaskGetSystemState
                0x00000000      0x120 embedded-software\mcu-freertos\libfoxbms-os.a(tasks.c.1.o)
 .text.vTaskPlaceOnUnorderedEventList
                0x00000000       0x58 embedded-software\mcu-freertos\libfoxbms-os.a(tasks.c.1.o)
 .text.xTaskRemoveFromUnorderedEventList
                0x00000000       0xb4 embedded-software\mcu-freertos\libfoxbms-os.a(tasks.c.1.o)
 .text.uxTaskGetTaskNumber
                0x00000000       0x2c embedded-software\mcu-freertos\libfoxbms-os.a(tasks.c.1.o)
 .text.vTaskSetTaskNumber
                0x00000000       0x24 embedded-software\mcu-freertos\libfoxbms-os.a(tasks.c.1.o)
 .text.vTaskGetInfo
                0x00000000       0xb8 embedded-software\mcu-freertos\libfoxbms-os.a(tasks.c.1.o)
 .text.prvListTasksWithinSingleList
                0x00000000       0xa8 embedded-software\mcu-freertos\libfoxbms-os.a(tasks.c.1.o)
 .text.prvTaskCheckFreeStackSpace
                0x00000000       0x38 embedded-software\mcu-freertos\libfoxbms-os.a(tasks.c.1.o)
 .text.xTaskGetCurrentTaskHandle
                0x00000000       0x20 embedded-software\mcu-freertos\libfoxbms-os.a(tasks.c.1.o)
 .text.uxTaskResetEventItemValue
                0x00000000       0x30 embedded-software\mcu-freertos\libfoxbms-os.a(tasks.c.1.o)
 .text.ulTaskNotifyTake
                0x00000000       0x90 embedded-software\mcu-freertos\libfoxbms-os.a(tasks.c.1.o)
 .text.xTaskNotifyWait
                0x00000000       0xb4 embedded-software\mcu-freertos\libfoxbms-os.a(tasks.c.1.o)
 .text.xTaskGenericNotify
                0x00000000      0x12c embedded-software\mcu-freertos\libfoxbms-os.a(tasks.c.1.o)
 .text.xTaskGenericNotifyFromISR
                0x00000000      0x174 embedded-software\mcu-freertos\libfoxbms-os.a(tasks.c.1.o)
 .text.vTaskNotifyGiveFromISR
                0x00000000      0x104 embedded-software\mcu-freertos\libfoxbms-os.a(tasks.c.1.o)
 .text.xTaskNotifyStateClear
                0x00000000       0x4c embedded-software\mcu-freertos\libfoxbms-os.a(tasks.c.1.o)
 .text          0x00000000        0x0 embedded-software\mcu-freertos\libfoxbms-os.a(timers.c.1.o)
 .data          0x00000000        0x0 embedded-software\mcu-freertos\libfoxbms-os.a(timers.c.1.o)
 .bss           0x00000000        0x0 embedded-software\mcu-freertos\libfoxbms-os.a(timers.c.1.o)
 .text.xTimerCreate
                0x00000000       0x3c embedded-software\mcu-freertos\libfoxbms-os.a(timers.c.1.o)
 .text.prvInitialiseNewTimer
                0x00000000       0x54 embedded-software\mcu-freertos\libfoxbms-os.a(timers.c.1.o)
 .text.xTimerGetTimerDaemonTaskHandle
                0x00000000       0x20 embedded-software\mcu-freertos\libfoxbms-os.a(timers.c.1.o)
 .text.xTimerGetPeriod
                0x00000000       0x24 embedded-software\mcu-freertos\libfoxbms-os.a(timers.c.1.o)
 .text.xTimerGetExpiryTime
                0x00000000       0x28 embedded-software\mcu-freertos\libfoxbms-os.a(timers.c.1.o)
 .text.pcTimerGetName
                0x00000000       0x24 embedded-software\mcu-freertos\libfoxbms-os.a(timers.c.1.o)
 .text.xTimerIsTimerActive
                0x00000000       0x3c embedded-software\mcu-freertos\libfoxbms-os.a(timers.c.1.o)
 .text.pvTimerGetTimerID
                0x00000000       0x30 embedded-software\mcu-freertos\libfoxbms-os.a(timers.c.1.o)
 .text.vTimerSetTimerID
                0x00000000       0x30 embedded-software\mcu-freertos\libfoxbms-os.a(timers.c.1.o)
 .text          0x00000000        0x0 embedded-software\mcu-freertos\libfoxbms-os.a(os.c.1.o)
 .data          0x00000000        0x0 embedded-software\mcu-freertos\libfoxbms-os.a(os.c.1.o)
 .bss           0x00000000        0x0 embedded-software\mcu-freertos\libfoxbms-os.a(os.c.1.o)
 .text.OS_Check_Context
                0x00000000       0x24 embedded-software\mcu-freertos\libfoxbms-os.a(os.c.1.o)
 .text          0x00000000        0x0 embedded-software\mcu-freertos\libfoxbms-os.a(list.c.1.o)
 .data          0x00000000        0x0 embedded-software\mcu-freertos\libfoxbms-os.a(list.c.1.o)
 .bss           0x00000000        0x0 embedded-software\mcu-freertos\libfoxbms-os.a(list.c.1.o)
 .text          0x00000000        0x0 embedded-software\mcu-secondary\src\application\libfoxbms-application.a(appltask.c.1.o)
 .data          0x00000000        0x0 embedded-software\mcu-secondary\src\application\libfoxbms-application.a(appltask.c.1.o)
 .bss           0x00000000        0x0 embedded-software\mcu-secondary\src\application\libfoxbms-application.a(appltask.c.1.o)
 .text          0x00000000        0x0 embedded-software\mcu-secondary\src\application\libfoxbms-application.a(appltask_cfg.c.1.o)
 .data          0x00000000        0x0 embedded-software\mcu-secondary\src\application\libfoxbms-application.a(appltask_cfg.c.1.o)
 .bss           0x00000000        0x0 embedded-software\mcu-secondary\src\application\libfoxbms-application.a(appltask_cfg.c.1.o)
 .text          0x00000000        0x0 embedded-software\mcu-secondary\src\application\libfoxbms-application.a(bms.c.1.o)
 .data          0x00000000        0x0 embedded-software\mcu-secondary\src\application\libfoxbms-application.a(bms.c.1.o)
 .bss           0x00000000        0x0 embedded-software\mcu-secondary\src\application\libfoxbms-application.a(bms.c.1.o)
 .text.BMS_GetStateRequest
                0x00000000       0x28 embedded-software\mcu-secondary\src\application\libfoxbms-application.a(bms.c.1.o)
 .text.BMS_CheckCANRequests
                0x00000000       0x34 embedded-software\mcu-secondary\src\application\libfoxbms-application.a(bms.c.1.o)
 .text          0x00000000        0x0 embedded-software\mcu-common\src\engine\libfoxbms-common-engine.a(database.c.1.o)
 .data          0x00000000        0x0 embedded-software\mcu-common\src\engine\libfoxbms-common-engine.a(database.c.1.o)
 .bss           0x00000000        0x0 embedded-software\mcu-common\src\engine\libfoxbms-common-engine.a(database.c.1.o)
 .text.DATA_GetTablePtrBeginCritical
                0x00000000       0x2c embedded-software\mcu-common\src\engine\libfoxbms-common-engine.a(database.c.1.o)
 .text          0x00000000        0x0 embedded-software\mcu-secondary\src\engine\libfoxbms-engine.a(database_cfg.c.1.o)
 .data          0x00000000        0x0 embedded-software\mcu-secondary\src\engine\libfoxbms-engine.a(database_cfg.c.1.o)
 .bss           0x00000000        0x0 embedded-software\mcu-secondary\src\engine\libfoxbms-engine.a(database_cfg.c.1.o)
 .text          0x00000000        0x0 embedded-software\mcu-secondary\src\engine\libfoxbms-engine.a(diag_cfg.c.1.o)
 .data          0x00000000        0x0 embedded-software\mcu-secondary\src\engine\libfoxbms-engine.a(diag_cfg.c.1.o)
 .bss           0x00000000        0x0 embedded-software\mcu-secondary\src\engine\libfoxbms-engine.a(diag_cfg.c.1.o)
 .data.diag_mask
                0x00000000       0x10 embedded-software\mcu-secondary\src\engine\libfoxbms-engine.a(diag_cfg.c.1.o)
 .text          0x00000000        0x0 embedded-software\mcu-secondary\src\engine\libfoxbms-engine.a(enginetask_cfg.c.1.o)
 .data          0x00000000        0x0 embedded-software\mcu-secondary\src\engine\libfoxbms-engine.a(enginetask_cfg.c.1.o)
 .bss           0x00000000        0x0 embedded-software\mcu-secondary\src\engine\libfoxbms-engine.a(enginetask_cfg.c.1.o)
 .text          0x00000000        0x0 embedded-software\mcu-secondary\src\engine\libfoxbms-engine.a(diag.c.1.o)
 .data          0x00000000        0x0 embedded-software\mcu-secondary\src\engine\libfoxbms-engine.a(diag.c.1.o)
 .bss           0x00000000        0x0 embedded-software\mcu-secondary\src\engine\libfoxbms-engine.a(diag.c.1.o)
 .bss.diag_err  0x00000000       0x10 embedded-software\mcu-secondary\src\engine\libfoxbms-engine.a(diag.c.1.o)
 .bss.diag_warn
                0x00000000       0x10 embedded-software\mcu-secondary\src\engine\libfoxbms-engine.a(diag.c.1.o)
 .bss.diag_occurrence_counters
                0x00000000       0x80 embedded-software\mcu-secondary\src\engine\libfoxbms-engine.a(diag.c.1.o)
 .text.DIAG_PrintErrors
                0x00000000       0xd4 embedded-software\mcu-secondary\src\engine\libfoxbms-engine.a(diag.c.1.o)
 .text.DIAG_PrintContactorInfo
                0x00000000       0xc8 embedded-software\mcu-secondary\src\engine\libfoxbms-engine.a(diag.c.1.o)
 .text          0x00000000        0x0 embedded-software\mcu-secondary\src\engine\libfoxbms-engine.a(enginetask.c.1.o)
 .data          0x00000000        0x0 embedded-software\mcu-secondary\src\engine\libfoxbms-engine.a(enginetask.c.1.o)
 .bss           0x00000000        0x0 embedded-software\mcu-secondary\src\engine\libfoxbms-engine.a(enginetask.c.1.o)
 .text          0x00000000        0x0 embedded-software\mcu-secondary\src\engine\libfoxbms-engine.a(sys.c.1.o)
 .data          0x00000000        0x0 embedded-software\mcu-secondary\src\engine\libfoxbms-engine.a(sys.c.1.o)
 .bss           0x00000000        0x0 embedded-software\mcu-secondary\src\engine\libfoxbms-engine.a(sys.c.1.o)
 .text.SYS_GetStateRequest
                0x00000000       0x28 embedded-software\mcu-secondary\src\engine\libfoxbms-engine.a(sys.c.1.o)
 .text.SYS_GetState
                0x00000000       0x18 embedded-software\mcu-secondary\src\engine\libfoxbms-engine.a(sys.c.1.o)
 .text          0x00000000        0x0 embedded-software\mcu-secondary\src\module\libfoxbms-module.a(adc_ex.c.1.o)
 .data          0x00000000        0x0 embedded-software\mcu-secondary\src\module\libfoxbms-module.a(adc_ex.c.1.o)
 .bss           0x00000000        0x0 embedded-software\mcu-secondary\src\module\libfoxbms-module.a(adc_ex.c.1.o)
 .text          0x00000000        0x0 embedded-software\mcu-secondary\src\module\libfoxbms-module.a(adc_cfg.c.1.o)
 .data          0x00000000        0x0 embedded-software\mcu-secondary\src\module\libfoxbms-module.a(adc_cfg.c.1.o)
 .bss           0x00000000        0x0 embedded-software\mcu-secondary\src\module\libfoxbms-module.a(adc_cfg.c.1.o)
 .text          0x00000000        0x0 embedded-software\mcu-secondary\src\module\libfoxbms-module.a(bkpsram_cfg.c.1.o)
 .data          0x00000000        0x0 embedded-software\mcu-secondary\src\module\libfoxbms-module.a(bkpsram_cfg.c.1.o)
 .bss           0x00000000        0x0 embedded-software\mcu-secondary\src\module\libfoxbms-module.a(bkpsram_cfg.c.1.o)
 .rodata.default_nvsoc
                0x00000000       0x10 embedded-software\mcu-secondary\src\module\libfoxbms-module.a(bkpsram_cfg.c.1.o)
 .rodata.default_contactors_count
                0x00000000       0x40 embedded-software\mcu-secondary\src\module\libfoxbms-module.a(bkpsram_cfg.c.1.o)
 .rodata.default_operating_hours
                0x00000000       0x10 embedded-software\mcu-secondary\src\module\libfoxbms-module.a(bkpsram_cfg.c.1.o)
 .text.BKPSRAM_Set_contactorcnt
                0x00000000       0x50 embedded-software\mcu-secondary\src\module\libfoxbms-module.a(bkpsram_cfg.c.1.o)
 .text.BKPSRAM_Get_contactorcnt
                0x00000000       0x44 embedded-software\mcu-secondary\src\module\libfoxbms-module.a(bkpsram_cfg.c.1.o)
 .text          0x00000000        0x0 embedded-software\mcu-secondary\src\module\libfoxbms-module.a(timer.c.1.o)
 .data          0x00000000        0x0 embedded-software\mcu-secondary\src\module\libfoxbms-module.a(timer.c.1.o)
 .bss           0x00000000        0x0 embedded-software\mcu-secondary\src\module\libfoxbms-module.a(timer.c.1.o)
 .text.TIM_SW_PWM_OUT_Init
                0x00000000       0x3c embedded-software\mcu-secondary\src\module\libfoxbms-module.a(timer.c.1.o)
 .text          0x00000000        0x0 embedded-software\mcu-secondary\src\module\libfoxbms-module.a(timer_cfg.c.1.o)
 .data          0x00000000        0x0 embedded-software\mcu-secondary\src\module\libfoxbms-module.a(timer_cfg.c.1.o)
 .bss           0x00000000        0x0 embedded-software\mcu-secondary\src\module\libfoxbms-module.a(timer_cfg.c.1.o)
 .text          0x00000000        0x0 embedded-software\mcu-common\src\module\libfoxbms-common-module.a(adc.c.1.o)
 .data          0x00000000        0x0 embedded-software\mcu-common\src\module\libfoxbms-common-module.a(adc.c.1.o)
 .bss           0x00000000        0x0 embedded-software\mcu-common\src\module\libfoxbms-common-module.a(adc.c.1.o)
 .text          0x00000000        0x0 embedded-software\mcu-common\src\module\libfoxbms-common-module.a(can.c.1.o)
 .data          0x00000000        0x0 embedded-software\mcu-common\src\module\libfoxbms-common-module.a(can.c.1.o)
 .bss           0x00000000        0x0 embedded-software\mcu-common\src\module\libfoxbms-common-module.a(can.c.1.o)
 .bss.sReceiveStruct1
                0x00000000       0x24 embedded-software\mcu-common\src\module\libfoxbms-common-module.a(can.c.1.o)
 .text.CAN_Send
                0x00000000      0x1cc embedded-software\mcu-common\src\module\libfoxbms-common-module.a(can.c.1.o)
 .text.CAN_ReceiveBuffer
                0x00000000       0xe8 embedded-software\mcu-common\src\module\libfoxbms-common-module.a(can.c.1.o)
 .text.CAN_SetSleepMode
                0x00000000       0x34 embedded-software\mcu-common\src\module\libfoxbms-common-module.a(can.c.1.o)
 .text.CAN_WakeUp
                0x00000000       0x34 embedded-software\mcu-common\src\module\libfoxbms-common-module.a(can.c.1.o)
 .text          0x00000000        0x0 embedded-software\mcu-common\src\module\libfoxbms-common-module.a(chksum.c.1.o)
 .data          0x00000000        0x0 embedded-software\mcu-common\src\module\libfoxbms-common-module.a(chksum.c.1.o)
 .bss           0x00000000        0x0 embedded-software\mcu-common\src\module\libfoxbms-common-module.a(chksum.c.1.o)
 .text.CHK_modulo32addition
                0x00000000       0x44 embedded-software\mcu-common\src\module\libfoxbms-common-module.a(chksum.c.1.o)
 .text          0x00000000        0x0 embedded-software\mcu-common\src\module\libfoxbms-common-module.a(dma.c.1.o)
 .data          0x00000000        0x0 embedded-software\mcu-common\src\module\libfoxbms-common-module.a(dma.c.1.o)
 .bss           0x00000000        0x0 embedded-software\mcu-common\src\module\libfoxbms-common-module.a(dma.c.1.o)
 .text          0x00000000        0x0 embedded-software\mcu-common\src\module\libfoxbms-common-module.a(interlock.c.1.o)
 .data          0x00000000        0x0 embedded-software\mcu-common\src\module\libfoxbms-common-module.a(interlock.c.1.o)
 .bss           0x00000000        0x0 embedded-software\mcu-common\src\module\libfoxbms-common-module.a(interlock.c.1.o)
 .text.ILCK_GetStateRequest
                0x00000000       0x28 embedded-software\mcu-common\src\module\libfoxbms-common-module.a(interlock.c.1.o)
 .text          0x00000000        0x0 embedded-software\mcu-common\src\module\libfoxbms-common-module.a(io.c.1.o)
 .data          0x00000000        0x0 embedded-software\mcu-common\src\module\libfoxbms-common-module.a(io.c.1.o)
 .bss           0x00000000        0x0 embedded-software\mcu-common\src\module\libfoxbms-common-module.a(io.c.1.o)
 .text.IO_EXTI_IRQHandler
                0x00000000       0x24 embedded-software\mcu-common\src\module\libfoxbms-common-module.a(io.c.1.o)
 .text.IO_EXTI_Callback
                0x00000000       0x24 embedded-software\mcu-common\src\module\libfoxbms-common-module.a(io.c.1.o)
 .text.IO_ConfigCheck
                0x00000000       0x18 embedded-software\mcu-common\src\module\libfoxbms-common-module.a(io.c.1.o)
 .text          0x00000000        0x0 embedded-software\mcu-common\src\module\libfoxbms-common-module.a(portcheck.c.1.o)
 .data          0x00000000        0x0 embedded-software\mcu-common\src\module\libfoxbms-common-module.a(portcheck.c.1.o)
 .bss           0x00000000        0x0 embedded-software\mcu-common\src\module\libfoxbms-common-module.a(portcheck.c.1.o)
 .text          0x00000000        0x0 embedded-software\mcu-common\src\module\libfoxbms-common-module.a(meas.c.1.o)
 .data          0x00000000        0x0 embedded-software\mcu-common\src\module\libfoxbms-common-module.a(meas.c.1.o)
 .bss           0x00000000        0x0 embedded-software\mcu-common\src\module\libfoxbms-common-module.a(meas.c.1.o)
 .text.MEAS_Request_IO_Write
                0x00000000       0x24 embedded-software\mcu-common\src\module\libfoxbms-common-module.a(meas.c.1.o)
 .text.MEAS_Request_IO_Read
                0x00000000       0x24 embedded-software\mcu-common\src\module\libfoxbms-common-module.a(meas.c.1.o)
 .text.MEAS_Request_Temperature_Read
                0x00000000       0x24 embedded-software\mcu-common\src\module\libfoxbms-common-module.a(meas.c.1.o)
 .text.MEAS_Request_BalancingFeedback_Read
                0x00000000       0x24 embedded-software\mcu-common\src\module\libfoxbms-common-module.a(meas.c.1.o)
 .text.MEAS_Request_EEPROM_Read
                0x00000000       0x24 embedded-software\mcu-common\src\module\libfoxbms-common-module.a(meas.c.1.o)
 .text.MEAS_Request_EEPROM_Write
                0x00000000       0x24 embedded-software\mcu-common\src\module\libfoxbms-common-module.a(meas.c.1.o)
 .text.MEAS_IsFirstMeasurementCycleFinished
                0x00000000       0x1c embedded-software\mcu-common\src\module\libfoxbms-common-module.a(meas.c.1.o)
 .text          0x00000000        0x0 embedded-software\mcu-common\src\module\libfoxbms-common-module.a(ltc.c.1.o)
 .data          0x00000000        0x0 embedded-software\mcu-common\src\module\libfoxbms-common-module.a(ltc.c.1.o)
 .bss           0x00000000        0x0 embedded-software\mcu-common\src\module\libfoxbms-common-module.a(ltc.c.1.o)
 .rodata.crc15Table
                0x00000000      0x400 embedded-software\mcu-common\src\module\libfoxbms-common-module.a(ltc.c.1.o)
 .rodata.ltc_cmdSTCOMM
                0x00000000        0x4 embedded-software\mcu-common\src\module\libfoxbms-common-module.a(ltc.c.1.o)
 .text.LTC_GetStateRequest
                0x00000000       0x28 embedded-software\mcu-common\src\module\libfoxbms-common-module.a(ltc.c.1.o)
 .text.LTC_GetState
                0x00000000       0x18 embedded-software\mcu-common\src\module\libfoxbms-common-module.a(ltc.c.1.o)
 .text.LTC_GetMuxSequenceState
                0x00000000       0x24 embedded-software\mcu-common\src\module\libfoxbms-common-module.a(ltc.c.1.o)
 .text          0x00000000        0x0 embedded-software\mcu-common\src\module\libfoxbms-common-module.a(ltc_pec.c.1.o)
 .data          0x00000000        0x0 embedded-software\mcu-common\src\module\libfoxbms-common-module.a(ltc_pec.c.1.o)
 .bss           0x00000000        0x0 embedded-software\mcu-common\src\module\libfoxbms-common-module.a(ltc_pec.c.1.o)
 .text          0x00000000        0x0 embedded-software\mcu-common\src\module\libfoxbms-common-module.a(mcu.c.1.o)
 .data          0x00000000        0x0 embedded-software\mcu-common\src\module\libfoxbms-common-module.a(mcu.c.1.o)
 .bss           0x00000000        0x0 embedded-software\mcu-common\src\module\libfoxbms-common-module.a(mcu.c.1.o)
 .text.MCU_Wait_us
                0x00000000       0x88 embedded-software\mcu-common\src\module\libfoxbms-common-module.a(mcu.c.1.o)
 .text.MCU_DisableINT
                0x00000000       0x20 embedded-software\mcu-common\src\module\libfoxbms-common-module.a(mcu.c.1.o)
 .text.MCU_RestoreINT
                0x00000000       0x24 embedded-software\mcu-common\src\module\libfoxbms-common-module.a(mcu.c.1.o)
 .text.MCU_GetTimeBase
                0x00000000       0x20 embedded-software\mcu-common\src\module\libfoxbms-common-module.a(mcu.c.1.o)
 .text          0x00000000        0x0 embedded-software\mcu-common\src\module\libfoxbms-common-module.a(rcc.c.1.o)
 .data          0x00000000        0x0 embedded-software\mcu-common\src\module\libfoxbms-common-module.a(rcc.c.1.o)
 .bss           0x00000000        0x0 embedded-software\mcu-common\src\module\libfoxbms-common-module.a(rcc.c.1.o)
 .text          0x00000000        0x0 embedded-software\mcu-common\src\module\libfoxbms-common-module.a(rtc.c.1.o)
 .data          0x00000000        0x0 embedded-software\mcu-common\src\module\libfoxbms-common-module.a(rtc.c.1.o)
 .bss           0x00000000        0x0 embedded-software\mcu-common\src\module\libfoxbms-common-module.a(rtc.c.1.o)
 .text.RTC_setTime
                0x00000000       0x1c embedded-software\mcu-common\src\module\libfoxbms-common-module.a(rtc.c.1.o)
 .text.RTC_setDate
                0x00000000       0x1c embedded-software\mcu-common\src\module\libfoxbms-common-module.a(rtc.c.1.o)
 .text          0x00000000        0x0 embedded-software\mcu-common\src\module\libfoxbms-common-module.a(bkpsram.c.1.o)
 .data          0x00000000        0x0 embedded-software\mcu-common\src\module\libfoxbms-common-module.a(bkpsram.c.1.o)
 .bss           0x00000000        0x0 embedded-software\mcu-common\src\module\libfoxbms-common-module.a(bkpsram.c.1.o)
 .text          0x00000000        0x0 embedded-software\mcu-common\src\module\libfoxbms-common-module.a(spi.c.1.o)
 .data          0x00000000        0x0 embedded-software\mcu-common\src\module\libfoxbms-common-module.a(spi.c.1.o)
 .bss           0x00000000        0x0 embedded-software\mcu-common\src\module\libfoxbms-common-module.a(spi.c.1.o)
 .rodata.spi_cmdDummy
                0x00000000        0x1 embedded-software\mcu-common\src\module\libfoxbms-common-module.a(spi.c.1.o)
 .text          0x00000000        0x0 embedded-software\mcu-common\src\module\libfoxbms-common-module.a(led.c.1.o)
 .data          0x00000000        0x0 embedded-software\mcu-common\src\module\libfoxbms-common-module.a(led.c.1.o)
 .bss           0x00000000        0x0 embedded-software\mcu-common\src\module\libfoxbms-common-module.a(led.c.1.o)
 .text          0x00000000        0x0 embedded-software\mcu-common\src\module\libfoxbms-common-module.a(wdg.c.1.o)
 .data          0x00000000        0x0 embedded-software\mcu-common\src\module\libfoxbms-common-module.a(wdg.c.1.o)
 .bss           0x00000000        0x0 embedded-software\mcu-common\src\module\libfoxbms-common-module.a(wdg.c.1.o)
 .text          0x00000000        0x0 embedded-software\mcu-common\src\module\libfoxbms-common-module.a(dma_cfg.c.1.o)
 .data          0x00000000        0x0 embedded-software\mcu-common\src\module\libfoxbms-common-module.a(dma_cfg.c.1.o)
 .bss           0x00000000        0x0 embedded-software\mcu-common\src\module\libfoxbms-common-module.a(dma_cfg.c.1.o)
 .text          0x00000000        0x0 embedded-software\mcu-common\src\module\libfoxbms-common-module.a(interlock_cfg.c.1.o)
 .data          0x00000000        0x0 embedded-software\mcu-common\src\module\libfoxbms-common-module.a(interlock_cfg.c.1.o)
 .bss           0x00000000        0x0 embedded-software\mcu-common\src\module\libfoxbms-common-module.a(interlock_cfg.c.1.o)
 .text          0x00000000        0x0 embedded-software\mcu-common\src\module\libfoxbms-common-module.a(io_cfg.c.1.o)
 .data          0x00000000        0x0 embedded-software\mcu-common\src\module\libfoxbms-common-module.a(io_cfg.c.1.o)
 .bss           0x00000000        0x0 embedded-software\mcu-common\src\module\libfoxbms-common-module.a(io_cfg.c.1.o)
 .text          0x00000000        0x0 embedded-software\mcu-common\src\module\libfoxbms-common-module.a(ltc_cfg.c.1.o)
 .data          0x00000000        0x0 embedded-software\mcu-common\src\module\libfoxbms-common-module.a(ltc_cfg.c.1.o)
 .bss           0x00000000        0x0 embedded-software\mcu-common\src\module\libfoxbms-common-module.a(ltc_cfg.c.1.o)
 .text          0x00000000        0x0 embedded-software\mcu-common\src\module\libfoxbms-common-module.a(rcc_cfg.c.1.o)
 .data          0x00000000        0x0 embedded-software\mcu-common\src\module\libfoxbms-common-module.a(rcc_cfg.c.1.o)
 .bss           0x00000000        0x0 embedded-software\mcu-common\src\module\libfoxbms-common-module.a(rcc_cfg.c.1.o)
 .text          0x00000000        0x0 embedded-software\mcu-common\src\module\libfoxbms-common-module.a(rtc_cfg.c.1.o)
 .data          0x00000000        0x0 embedded-software\mcu-common\src\module\libfoxbms-common-module.a(rtc_cfg.c.1.o)
 .bss           0x00000000        0x0 embedded-software\mcu-common\src\module\libfoxbms-common-module.a(rtc_cfg.c.1.o)
 .text          0x00000000        0x0 embedded-software\mcu-common\src\module\libfoxbms-common-module.a(can_cfg.c.1.o)
 .data          0x00000000        0x0 embedded-software\mcu-common\src\module\libfoxbms-common-module.a(can_cfg.c.1.o)
 .bss           0x00000000        0x0 embedded-software\mcu-common\src\module\libfoxbms-common-module.a(can_cfg.c.1.o)
 .rodata.can_CAN0_messages_tx
                0x00000000        0x0 embedded-software\mcu-common\src\module\libfoxbms-common-module.a(can_cfg.c.1.o)
 .rodata.can_CAN1_messages_tx
                0x00000000        0x0 embedded-software\mcu-common\src\module\libfoxbms-common-module.a(can_cfg.c.1.o)
 .rodata.can_CAN0_tx_length
                0x00000000        0x1 embedded-software\mcu-common\src\module\libfoxbms-common-module.a(can_cfg.c.1.o)
 .rodata.can_CAN1_tx_length
                0x00000000        0x1 embedded-software\mcu-common\src\module\libfoxbms-common-module.a(can_cfg.c.1.o)
 .data.can1_bufferBypass_RxMsgs
                0x00000000        0xc embedded-software\mcu-common\src\module\libfoxbms-common-module.a(can_cfg.c.1.o)
 .text          0x00000000        0x0 embedded-software\mcu-common\src\module\libfoxbms-common-module.a(spi_cfg.c.1.o)
 .data          0x00000000        0x0 embedded-software\mcu-common\src\module\libfoxbms-common-module.a(spi_cfg.c.1.o)
 .bss           0x00000000        0x0 embedded-software\mcu-common\src\module\libfoxbms-common-module.a(spi_cfg.c.1.o)
 .text          0x00000000        0x0 embedded-software\mcu-hal\STM32F4xx_HAL_Driver\libfoxbms-stmhal.a(stm32f4xx_hal.c.1.o)
 .data          0x00000000        0x0 embedded-software\mcu-hal\STM32F4xx_HAL_Driver\libfoxbms-stmhal.a(stm32f4xx_hal.c.1.o)
 .bss           0x00000000        0x0 embedded-software\mcu-hal\STM32F4xx_HAL_Driver\libfoxbms-stmhal.a(stm32f4xx_hal.c.1.o)
 .text.HAL_DeInit
                0x00000000       0x58 embedded-software\mcu-hal\STM32F4xx_HAL_Driver\libfoxbms-stmhal.a(stm32f4xx_hal.c.1.o)
 .text.HAL_MspInit
                0x00000000        0xc embedded-software\mcu-hal\STM32F4xx_HAL_Driver\libfoxbms-stmhal.a(stm32f4xx_hal.c.1.o)
 .text.HAL_MspDeInit
                0x00000000        0xc embedded-software\mcu-hal\STM32F4xx_HAL_Driver\libfoxbms-stmhal.a(stm32f4xx_hal.c.1.o)
 .text.HAL_Delay
                0x00000000       0x2c embedded-software\mcu-hal\STM32F4xx_HAL_Driver\libfoxbms-stmhal.a(stm32f4xx_hal.c.1.o)
 .text.HAL_SuspendTick
                0x00000000       0x1c embedded-software\mcu-hal\STM32F4xx_HAL_Driver\libfoxbms-stmhal.a(stm32f4xx_hal.c.1.o)
 .text.HAL_ResumeTick
                0x00000000       0x1c embedded-software\mcu-hal\STM32F4xx_HAL_Driver\libfoxbms-stmhal.a(stm32f4xx_hal.c.1.o)
 .text.HAL_GetHalVersion
                0x00000000       0x14 embedded-software\mcu-hal\STM32F4xx_HAL_Driver\libfoxbms-stmhal.a(stm32f4xx_hal.c.1.o)
 .text.HAL_GetREVID
                0x00000000       0x18 embedded-software\mcu-hal\STM32F4xx_HAL_Driver\libfoxbms-stmhal.a(stm32f4xx_hal.c.1.o)
 .text.HAL_GetDEVID
                0x00000000       0x1c embedded-software\mcu-hal\STM32F4xx_HAL_Driver\libfoxbms-stmhal.a(stm32f4xx_hal.c.1.o)
 .text.HAL_DBGMCU_EnableDBGSleepMode
                0x00000000       0x1c embedded-software\mcu-hal\STM32F4xx_HAL_Driver\libfoxbms-stmhal.a(stm32f4xx_hal.c.1.o)
 .text.HAL_DBGMCU_DisableDBGSleepMode
                0x00000000       0x1c embedded-software\mcu-hal\STM32F4xx_HAL_Driver\libfoxbms-stmhal.a(stm32f4xx_hal.c.1.o)
 .text.HAL_DBGMCU_EnableDBGStopMode
                0x00000000       0x1c embedded-software\mcu-hal\STM32F4xx_HAL_Driver\libfoxbms-stmhal.a(stm32f4xx_hal.c.1.o)
 .text.HAL_DBGMCU_DisableDBGStopMode
                0x00000000       0x1c embedded-software\mcu-hal\STM32F4xx_HAL_Driver\libfoxbms-stmhal.a(stm32f4xx_hal.c.1.o)
 .text.HAL_DBGMCU_EnableDBGStandbyMode
                0x00000000       0x1c embedded-software\mcu-hal\STM32F4xx_HAL_Driver\libfoxbms-stmhal.a(stm32f4xx_hal.c.1.o)
 .text.HAL_DBGMCU_DisableDBGStandbyMode
                0x00000000       0x1c embedded-software\mcu-hal\STM32F4xx_HAL_Driver\libfoxbms-stmhal.a(stm32f4xx_hal.c.1.o)
 .text.HAL_EnableCompensationCell
                0x00000000       0x34 embedded-software\mcu-hal\STM32F4xx_HAL_Driver\libfoxbms-stmhal.a(stm32f4xx_hal.c.1.o)
 .text.HAL_DisableCompensationCell
                0x00000000       0x34 embedded-software\mcu-hal\STM32F4xx_HAL_Driver\libfoxbms-stmhal.a(stm32f4xx_hal.c.1.o)
 .text.HAL_EnableMemorySwappingBank
                0x00000000       0x34 embedded-software\mcu-hal\STM32F4xx_HAL_Driver\libfoxbms-stmhal.a(stm32f4xx_hal.c.1.o)
 .text.HAL_DisableMemorySwappingBank
                0x00000000       0x34 embedded-software\mcu-hal\STM32F4xx_HAL_Driver\libfoxbms-stmhal.a(stm32f4xx_hal.c.1.o)
 .text          0x00000000        0x0 embedded-software\mcu-hal\STM32F4xx_HAL_Driver\libfoxbms-stmhal.a(stm32f4xx_hal_adc.c.1.o)
 .data          0x00000000        0x0 embedded-software\mcu-hal\STM32F4xx_HAL_Driver\libfoxbms-stmhal.a(stm32f4xx_hal_adc.c.1.o)
 .bss           0x00000000        0x0 embedded-software\mcu-hal\STM32F4xx_HAL_Driver\libfoxbms-stmhal.a(stm32f4xx_hal_adc.c.1.o)
 .text.HAL_ADC_DeInit
                0x00000000       0x9c embedded-software\mcu-hal\STM32F4xx_HAL_Driver\libfoxbms-stmhal.a(stm32f4xx_hal_adc.c.1.o)
 .text.HAL_ADC_MspDeInit
                0x00000000       0x14 embedded-software\mcu-hal\STM32F4xx_HAL_Driver\libfoxbms-stmhal.a(stm32f4xx_hal_adc.c.1.o)
 .text.HAL_ADC_Start
                0x00000000      0x190 embedded-software\mcu-hal\STM32F4xx_HAL_Driver\libfoxbms-stmhal.a(stm32f4xx_hal_adc.c.1.o)
 .text.HAL_ADC_Stop
                0x00000000       0x9c embedded-software\mcu-hal\STM32F4xx_HAL_Driver\libfoxbms-stmhal.a(stm32f4xx_hal_adc.c.1.o)
 .text.HAL_ADC_PollForConversion
                0x00000000      0x104 embedded-software\mcu-hal\STM32F4xx_HAL_Driver\libfoxbms-stmhal.a(stm32f4xx_hal_adc.c.1.o)
 .text.HAL_ADC_PollForEvent
                0x00000000       0xf8 embedded-software\mcu-hal\STM32F4xx_HAL_Driver\libfoxbms-stmhal.a(stm32f4xx_hal_adc.c.1.o)
 .text.HAL_ADC_Start_DMA
                0x00000000      0x1f4 embedded-software\mcu-hal\STM32F4xx_HAL_Driver\libfoxbms-stmhal.a(stm32f4xx_hal_adc.c.1.o)
 .text.HAL_ADC_Stop_DMA
                0x00000000       0xcc embedded-software\mcu-hal\STM32F4xx_HAL_Driver\libfoxbms-stmhal.a(stm32f4xx_hal_adc.c.1.o)
 .text.HAL_ADC_ConvCpltCallback
                0x00000000       0x14 embedded-software\mcu-hal\STM32F4xx_HAL_Driver\libfoxbms-stmhal.a(stm32f4xx_hal_adc.c.1.o)
 .text.HAL_ADC_ConvHalfCpltCallback
                0x00000000       0x14 embedded-software\mcu-hal\STM32F4xx_HAL_Driver\libfoxbms-stmhal.a(stm32f4xx_hal_adc.c.1.o)
 .text.HAL_ADC_AnalogWDGConfig
                0x00000000      0x1fc embedded-software\mcu-hal\STM32F4xx_HAL_Driver\libfoxbms-stmhal.a(stm32f4xx_hal_adc.c.1.o)
 .text.HAL_ADC_GetState
                0x00000000       0x18 embedded-software\mcu-hal\STM32F4xx_HAL_Driver\libfoxbms-stmhal.a(stm32f4xx_hal_adc.c.1.o)
 .text.HAL_ADC_GetError
                0x00000000       0x18 embedded-software\mcu-hal\STM32F4xx_HAL_Driver\libfoxbms-stmhal.a(stm32f4xx_hal_adc.c.1.o)
 .text.ADC_DMAConvCplt
                0x00000000       0xa4 embedded-software\mcu-hal\STM32F4xx_HAL_Driver\libfoxbms-stmhal.a(stm32f4xx_hal_adc.c.1.o)
 .text.ADC_DMAHalfConvCplt
                0x00000000       0x1c embedded-software\mcu-hal\STM32F4xx_HAL_Driver\libfoxbms-stmhal.a(stm32f4xx_hal_adc.c.1.o)
 .text.ADC_DMAError
                0x00000000       0x2c embedded-software\mcu-hal\STM32F4xx_HAL_Driver\libfoxbms-stmhal.a(stm32f4xx_hal_adc.c.1.o)
 .text          0x00000000        0x0 embedded-software\mcu-hal\STM32F4xx_HAL_Driver\libfoxbms-stmhal.a(stm32f4xx_hal_adc_ex.c.1.o)
 .data          0x00000000        0x0 embedded-software\mcu-hal\STM32F4xx_HAL_Driver\libfoxbms-stmhal.a(stm32f4xx_hal_adc_ex.c.1.o)
 .bss           0x00000000        0x0 embedded-software\mcu-hal\STM32F4xx_HAL_Driver\libfoxbms-stmhal.a(stm32f4xx_hal_adc_ex.c.1.o)
 .text.HAL_ADCEx_InjectedStart
                0x00000000      0x178 embedded-software\mcu-hal\STM32F4xx_HAL_Driver\libfoxbms-stmhal.a(stm32f4xx_hal_adc_ex.c.1.o)
 .text.HAL_ADCEx_InjectedStart_IT
                0x00000000      0x188 embedded-software\mcu-hal\STM32F4xx_HAL_Driver\libfoxbms-stmhal.a(stm32f4xx_hal_adc_ex.c.1.o)
 .rodata        0x00000000       0x50 embedded-software\mcu-hal\STM32F4xx_HAL_Driver\libfoxbms-stmhal.a(stm32f4xx_hal_adc_ex.c.1.o)
 .text.HAL_ADCEx_InjectedStop
                0x00000000       0xcc embedded-software\mcu-hal\STM32F4xx_HAL_Driver\libfoxbms-stmhal.a(stm32f4xx_hal_adc_ex.c.1.o)
 .text.HAL_ADCEx_InjectedPollForConversion
                0x00000000       0xe8 embedded-software\mcu-hal\STM32F4xx_HAL_Driver\libfoxbms-stmhal.a(stm32f4xx_hal_adc_ex.c.1.o)
 .text.HAL_ADCEx_InjectedStop_IT
                0x00000000       0xdc embedded-software\mcu-hal\STM32F4xx_HAL_Driver\libfoxbms-stmhal.a(stm32f4xx_hal_adc_ex.c.1.o)
 .text.HAL_ADCEx_InjectedGetValue
                0x00000000       0x84 embedded-software\mcu-hal\STM32F4xx_HAL_Driver\libfoxbms-stmhal.a(stm32f4xx_hal_adc_ex.c.1.o)
 .text.HAL_ADCEx_MultiModeStart_DMA
                0x00000000      0x1e0 embedded-software\mcu-hal\STM32F4xx_HAL_Driver\libfoxbms-stmhal.a(stm32f4xx_hal_adc_ex.c.1.o)
 .text.HAL_ADCEx_MultiModeStop_DMA
                0x00000000       0xcc embedded-software\mcu-hal\STM32F4xx_HAL_Driver\libfoxbms-stmhal.a(stm32f4xx_hal_adc_ex.c.1.o)
 .text.HAL_ADCEx_MultiModeGetValue
                0x00000000       0x1c embedded-software\mcu-hal\STM32F4xx_HAL_Driver\libfoxbms-stmhal.a(stm32f4xx_hal_adc_ex.c.1.o)
 .text.HAL_ADCEx_InjectedConfigChannel
                0x00000000      0x54c embedded-software\mcu-hal\STM32F4xx_HAL_Driver\libfoxbms-stmhal.a(stm32f4xx_hal_adc_ex.c.1.o)
 .text.HAL_ADCEx_MultiModeConfigChannel
                0x00000000      0x1d4 embedded-software\mcu-hal\STM32F4xx_HAL_Driver\libfoxbms-stmhal.a(stm32f4xx_hal_adc_ex.c.1.o)
 .text.ADC_MultiModeDMAConvCplt
                0x00000000       0xa4 embedded-software\mcu-hal\STM32F4xx_HAL_Driver\libfoxbms-stmhal.a(stm32f4xx_hal_adc_ex.c.1.o)
 .text.ADC_MultiModeDMAHalfConvCplt
                0x00000000       0x1c embedded-software\mcu-hal\STM32F4xx_HAL_Driver\libfoxbms-stmhal.a(stm32f4xx_hal_adc_ex.c.1.o)
 .text.ADC_MultiModeDMAError
                0x00000000       0x2c embedded-software\mcu-hal\STM32F4xx_HAL_Driver\libfoxbms-stmhal.a(stm32f4xx_hal_adc_ex.c.1.o)
 .text          0x00000000        0x0 embedded-software\mcu-hal\STM32F4xx_HAL_Driver\libfoxbms-stmhal.a(stm32f4xx_hal_can.c.1.o)
 .data          0x00000000        0x0 embedded-software\mcu-hal\STM32F4xx_HAL_Driver\libfoxbms-stmhal.a(stm32f4xx_hal_can.c.1.o)
 .bss           0x00000000        0x0 embedded-software\mcu-hal\STM32F4xx_HAL_Driver\libfoxbms-stmhal.a(stm32f4xx_hal_can.c.1.o)
 .text.HAL_CAN_MspInit
                0x00000000       0x14 embedded-software\mcu-hal\STM32F4xx_HAL_Driver\libfoxbms-stmhal.a(stm32f4xx_hal_can.c.1.o)
 .text.HAL_CAN_MspDeInit
                0x00000000       0x14 embedded-software\mcu-hal\STM32F4xx_HAL_Driver\libfoxbms-stmhal.a(stm32f4xx_hal_can.c.1.o)
 .text.HAL_CAN_Transmit
                0x00000000      0x364 embedded-software\mcu-hal\STM32F4xx_HAL_Driver\libfoxbms-stmhal.a(stm32f4xx_hal_can.c.1.o)
 .text.HAL_CAN_Receive
                0x00000000      0x288 embedded-software\mcu-hal\STM32F4xx_HAL_Driver\libfoxbms-stmhal.a(stm32f4xx_hal_can.c.1.o)
 .text.HAL_CAN_Sleep
                0x00000000       0xac embedded-software\mcu-hal\STM32F4xx_HAL_Driver\libfoxbms-stmhal.a(stm32f4xx_hal_can.c.1.o)
 .text.HAL_CAN_WakeUp
                0x00000000       0xa8 embedded-software\mcu-hal\STM32F4xx_HAL_Driver\libfoxbms-stmhal.a(stm32f4xx_hal_can.c.1.o)
 .text.HAL_CAN_IRQHandler
                0x00000000      0x32c embedded-software\mcu-hal\STM32F4xx_HAL_Driver\libfoxbms-stmhal.a(stm32f4xx_hal_can.c.1.o)
 .text.HAL_CAN_TxCpltCallback
                0x00000000       0x14 embedded-software\mcu-hal\STM32F4xx_HAL_Driver\libfoxbms-stmhal.a(stm32f4xx_hal_can.c.1.o)
 .text.HAL_CAN_RxCpltCallback
                0x00000000       0x14 embedded-software\mcu-hal\STM32F4xx_HAL_Driver\libfoxbms-stmhal.a(stm32f4xx_hal_can.c.1.o)
 .text.HAL_CAN_ErrorCallback
                0x00000000       0x14 embedded-software\mcu-hal\STM32F4xx_HAL_Driver\libfoxbms-stmhal.a(stm32f4xx_hal_can.c.1.o)
 .text.HAL_CAN_GetState
                0x00000000       0x1c embedded-software\mcu-hal\STM32F4xx_HAL_Driver\libfoxbms-stmhal.a(stm32f4xx_hal_can.c.1.o)
 .text.HAL_CAN_GetError
                0x00000000       0x18 embedded-software\mcu-hal\STM32F4xx_HAL_Driver\libfoxbms-stmhal.a(stm32f4xx_hal_can.c.1.o)
 .text.CAN_Transmit_IT
                0x00000000       0xa4 embedded-software\mcu-hal\STM32F4xx_HAL_Driver\libfoxbms-stmhal.a(stm32f4xx_hal_can.c.1.o)
 .text.CAN_Receive_IT
                0x00000000      0x234 embedded-software\mcu-hal\STM32F4xx_HAL_Driver\libfoxbms-stmhal.a(stm32f4xx_hal_can.c.1.o)
 .text          0x00000000        0x0 embedded-software\mcu-hal\STM32F4xx_HAL_Driver\libfoxbms-stmhal.a(stm32f4xx_hal_cortex.c.1.o)
 .data          0x00000000        0x0 embedded-software\mcu-hal\STM32F4xx_HAL_Driver\libfoxbms-stmhal.a(stm32f4xx_hal_cortex.c.1.o)
 .bss           0x00000000        0x0 embedded-software\mcu-hal\STM32F4xx_HAL_Driver\libfoxbms-stmhal.a(stm32f4xx_hal_cortex.c.1.o)
 .text.NVIC_DisableIRQ
                0x00000000       0x34 embedded-software\mcu-hal\STM32F4xx_HAL_Driver\libfoxbms-stmhal.a(stm32f4xx_hal_cortex.c.1.o)
 .text.NVIC_GetPendingIRQ
                0x00000000       0x38 embedded-software\mcu-hal\STM32F4xx_HAL_Driver\libfoxbms-stmhal.a(stm32f4xx_hal_cortex.c.1.o)
 .text.NVIC_SetPendingIRQ
                0x00000000       0x34 embedded-software\mcu-hal\STM32F4xx_HAL_Driver\libfoxbms-stmhal.a(stm32f4xx_hal_cortex.c.1.o)
 .text.NVIC_GetActive
                0x00000000       0x38 embedded-software\mcu-hal\STM32F4xx_HAL_Driver\libfoxbms-stmhal.a(stm32f4xx_hal_cortex.c.1.o)
 .text.NVIC_GetPriority
                0x00000000       0x50 embedded-software\mcu-hal\STM32F4xx_HAL_Driver\libfoxbms-stmhal.a(stm32f4xx_hal_cortex.c.1.o)
 .text.NVIC_DecodePriority
                0x00000000       0x68 embedded-software\mcu-hal\STM32F4xx_HAL_Driver\libfoxbms-stmhal.a(stm32f4xx_hal_cortex.c.1.o)
 .text.HAL_NVIC_DisableIRQ
                0x00000000       0x30 embedded-software\mcu-hal\STM32F4xx_HAL_Driver\libfoxbms-stmhal.a(stm32f4xx_hal_cortex.c.1.o)
 .text.HAL_MPU_ConfigRegion
                0x00000000      0x2ac embedded-software\mcu-hal\STM32F4xx_HAL_Driver\libfoxbms-stmhal.a(stm32f4xx_hal_cortex.c.1.o)
 .text.HAL_NVIC_GetPriorityGrouping
                0x00000000       0x10 embedded-software\mcu-hal\STM32F4xx_HAL_Driver\libfoxbms-stmhal.a(stm32f4xx_hal_cortex.c.1.o)
 .text.HAL_NVIC_GetPriority
                0x00000000       0x5c embedded-software\mcu-hal\STM32F4xx_HAL_Driver\libfoxbms-stmhal.a(stm32f4xx_hal_cortex.c.1.o)
 .text.HAL_NVIC_SetPendingIRQ
                0x00000000       0x30 embedded-software\mcu-hal\STM32F4xx_HAL_Driver\libfoxbms-stmhal.a(stm32f4xx_hal_cortex.c.1.o)
 .text.HAL_NVIC_GetPendingIRQ
                0x00000000       0x34 embedded-software\mcu-hal\STM32F4xx_HAL_Driver\libfoxbms-stmhal.a(stm32f4xx_hal_cortex.c.1.o)
 .text.HAL_NVIC_GetActive
                0x00000000       0x34 embedded-software\mcu-hal\STM32F4xx_HAL_Driver\libfoxbms-stmhal.a(stm32f4xx_hal_cortex.c.1.o)
 .text.HAL_SYSTICK_CLKSourceConfig
                0x00000000       0x4c embedded-software\mcu-hal\STM32F4xx_HAL_Driver\libfoxbms-stmhal.a(stm32f4xx_hal_cortex.c.1.o)
 .text.HAL_SYSTICK_IRQHandler
                0x00000000        0xc embedded-software\mcu-hal\STM32F4xx_HAL_Driver\libfoxbms-stmhal.a(stm32f4xx_hal_cortex.c.1.o)
 .text.HAL_SYSTICK_Callback
                0x00000000        0xc embedded-software\mcu-hal\STM32F4xx_HAL_Driver\libfoxbms-stmhal.a(stm32f4xx_hal_cortex.c.1.o)
 .text          0x00000000        0x0 embedded-software\mcu-hal\STM32F4xx_HAL_Driver\libfoxbms-stmhal.a(stm32f4xx_hal_dma.c.1.o)
 .data          0x00000000        0x0 embedded-software\mcu-hal\STM32F4xx_HAL_Driver\libfoxbms-stmhal.a(stm32f4xx_hal_dma.c.1.o)
 .bss           0x00000000        0x0 embedded-software\mcu-hal\STM32F4xx_HAL_Driver\libfoxbms-stmhal.a(stm32f4xx_hal_dma.c.1.o)
 .text.HAL_DMA_DeInit
                0x00000000       0x9c embedded-software\mcu-hal\STM32F4xx_HAL_Driver\libfoxbms-stmhal.a(stm32f4xx_hal_dma.c.1.o)
 .text.HAL_DMA_Start
                0x00000000       0x94 embedded-software\mcu-hal\STM32F4xx_HAL_Driver\libfoxbms-stmhal.a(stm32f4xx_hal_dma.c.1.o)
 .text.HAL_DMA_Abort
                0x00000000       0xe4 embedded-software\mcu-hal\STM32F4xx_HAL_Driver\libfoxbms-stmhal.a(stm32f4xx_hal_dma.c.1.o)
 .text.HAL_DMA_PollForTransfer
                0x00000000      0x1c4 embedded-software\mcu-hal\STM32F4xx_HAL_Driver\libfoxbms-stmhal.a(stm32f4xx_hal_dma.c.1.o)
 .text.HAL_DMA_RegisterCallback
                0x00000000       0xa8 embedded-software\mcu-hal\STM32F4xx_HAL_Driver\libfoxbms-stmhal.a(stm32f4xx_hal_dma.c.1.o)
 .text.HAL_DMA_UnRegisterCallback
                0x00000000       0xd4 embedded-software\mcu-hal\STM32F4xx_HAL_Driver\libfoxbms-stmhal.a(stm32f4xx_hal_dma.c.1.o)
 .text.HAL_DMA_GetState
                0x00000000       0x1c embedded-software\mcu-hal\STM32F4xx_HAL_Driver\libfoxbms-stmhal.a(stm32f4xx_hal_dma.c.1.o)
 .text.HAL_DMA_GetError
                0x00000000       0x18 embedded-software\mcu-hal\STM32F4xx_HAL_Driver\libfoxbms-stmhal.a(stm32f4xx_hal_dma.c.1.o)
 .text          0x00000000        0x0 embedded-software\mcu-hal\STM32F4xx_HAL_Driver\libfoxbms-stmhal.a(stm32f4xx_hal_gpio.c.1.o)
 .data          0x00000000        0x0 embedded-software\mcu-hal\STM32F4xx_HAL_Driver\libfoxbms-stmhal.a(stm32f4xx_hal_gpio.c.1.o)
 .bss           0x00000000        0x0 embedded-software\mcu-hal\STM32F4xx_HAL_Driver\libfoxbms-stmhal.a(stm32f4xx_hal_gpio.c.1.o)
 .text.HAL_GPIO_DeInit
                0x00000000      0x27c embedded-software\mcu-hal\STM32F4xx_HAL_Driver\libfoxbms-stmhal.a(stm32f4xx_hal_gpio.c.1.o)
 .text.HAL_GPIO_LockPin
                0x00000000       0x60 embedded-software\mcu-hal\STM32F4xx_HAL_Driver\libfoxbms-stmhal.a(stm32f4xx_hal_gpio.c.1.o)
 .text.HAL_GPIO_EXTI_IRQHandler
                0x00000000       0x30 embedded-software\mcu-hal\STM32F4xx_HAL_Driver\libfoxbms-stmhal.a(stm32f4xx_hal_gpio.c.1.o)
 .text.HAL_GPIO_EXTI_Callback
                0x00000000       0x14 embedded-software\mcu-hal\STM32F4xx_HAL_Driver\libfoxbms-stmhal.a(stm32f4xx_hal_gpio.c.1.o)
 .text          0x00000000        0x0 embedded-software\mcu-hal\STM32F4xx_HAL_Driver\libfoxbms-stmhal.a(stm32f4xx_hal_iwdg.c.1.o)
 .data          0x00000000        0x0 embedded-software\mcu-hal\STM32F4xx_HAL_Driver\libfoxbms-stmhal.a(stm32f4xx_hal_iwdg.c.1.o)
 .bss           0x00000000        0x0 embedded-software\mcu-hal\STM32F4xx_HAL_Driver\libfoxbms-stmhal.a(stm32f4xx_hal_iwdg.c.1.o)
 .text          0x00000000        0x0 embedded-software\mcu-hal\STM32F4xx_HAL_Driver\libfoxbms-stmhal.a(stm32f4xx_hal_pwr.c.1.o)
 .data          0x00000000        0x0 embedded-software\mcu-hal\STM32F4xx_HAL_Driver\libfoxbms-stmhal.a(stm32f4xx_hal_pwr.c.1.o)
 .bss           0x00000000        0x0 embedded-software\mcu-hal\STM32F4xx_HAL_Driver\libfoxbms-stmhal.a(stm32f4xx_hal_pwr.c.1.o)
 .text.HAL_PWR_DeInit
                0x00000000       0x28 embedded-software\mcu-hal\STM32F4xx_HAL_Driver\libfoxbms-stmhal.a(stm32f4xx_hal_pwr.c.1.o)
 .text.HAL_PWR_DisableBkUpAccess
                0x00000000       0x34 embedded-software\mcu-hal\STM32F4xx_HAL_Driver\libfoxbms-stmhal.a(stm32f4xx_hal_pwr.c.1.o)
 .rodata        0x00000000       0x4d embedded-software\mcu-hal\STM32F4xx_HAL_Driver\libfoxbms-stmhal.a(stm32f4xx_hal_pwr.c.1.o)
 .text.HAL_PWR_ConfigPVD
                0x00000000      0x164 embedded-software\mcu-hal\STM32F4xx_HAL_Driver\libfoxbms-stmhal.a(stm32f4xx_hal_pwr.c.1.o)
 .text.HAL_PWR_EnablePVD
                0x00000000       0x34 embedded-software\mcu-hal\STM32F4xx_HAL_Driver\libfoxbms-stmhal.a(stm32f4xx_hal_pwr.c.1.o)
 .text.HAL_PWR_DisablePVD
                0x00000000       0x34 embedded-software\mcu-hal\STM32F4xx_HAL_Driver\libfoxbms-stmhal.a(stm32f4xx_hal_pwr.c.1.o)
 .text.HAL_PWR_EnableWakeUpPin
                0x00000000       0x34 embedded-software\mcu-hal\STM32F4xx_HAL_Driver\libfoxbms-stmhal.a(stm32f4xx_hal_pwr.c.1.o)
 .text.HAL_PWR_DisableWakeUpPin
                0x00000000       0x38 embedded-software\mcu-hal\STM32F4xx_HAL_Driver\libfoxbms-stmhal.a(stm32f4xx_hal_pwr.c.1.o)
 .text.HAL_PWR_EnterSLEEPMode
                0x00000000       0x64 embedded-software\mcu-hal\STM32F4xx_HAL_Driver\libfoxbms-stmhal.a(stm32f4xx_hal_pwr.c.1.o)
 .text.HAL_PWR_EnterSTOPMode
                0x00000000       0x84 embedded-software\mcu-hal\STM32F4xx_HAL_Driver\libfoxbms-stmhal.a(stm32f4xx_hal_pwr.c.1.o)
 .text.HAL_PWR_EnterSTANDBYMode
                0x00000000       0x30 embedded-software\mcu-hal\STM32F4xx_HAL_Driver\libfoxbms-stmhal.a(stm32f4xx_hal_pwr.c.1.o)
 .text.HAL_PWR_PVD_IRQHandler
                0x00000000       0x24 embedded-software\mcu-hal\STM32F4xx_HAL_Driver\libfoxbms-stmhal.a(stm32f4xx_hal_pwr.c.1.o)
 .text.HAL_PWR_PVDCallback
                0x00000000        0xc embedded-software\mcu-hal\STM32F4xx_HAL_Driver\libfoxbms-stmhal.a(stm32f4xx_hal_pwr.c.1.o)
 .text.HAL_PWR_EnableSleepOnExit
                0x00000000       0x1c embedded-software\mcu-hal\STM32F4xx_HAL_Driver\libfoxbms-stmhal.a(stm32f4xx_hal_pwr.c.1.o)
 .text.HAL_PWR_DisableSleepOnExit
                0x00000000       0x1c embedded-software\mcu-hal\STM32F4xx_HAL_Driver\libfoxbms-stmhal.a(stm32f4xx_hal_pwr.c.1.o)
 .text.HAL_PWR_EnableSEVOnPend
                0x00000000       0x1c embedded-software\mcu-hal\STM32F4xx_HAL_Driver\libfoxbms-stmhal.a(stm32f4xx_hal_pwr.c.1.o)
 .text.HAL_PWR_DisableSEVOnPend
                0x00000000       0x1c embedded-software\mcu-hal\STM32F4xx_HAL_Driver\libfoxbms-stmhal.a(stm32f4xx_hal_pwr.c.1.o)
 .text          0x00000000        0x0 embedded-software\mcu-hal\STM32F4xx_HAL_Driver\libfoxbms-stmhal.a(stm32f4xx_hal_pwr_ex.c.1.o)
 .data          0x00000000        0x0 embedded-software\mcu-hal\STM32F4xx_HAL_Driver\libfoxbms-stmhal.a(stm32f4xx_hal_pwr_ex.c.1.o)
 .bss           0x00000000        0x0 embedded-software\mcu-hal\STM32F4xx_HAL_Driver\libfoxbms-stmhal.a(stm32f4xx_hal_pwr_ex.c.1.o)
 .text.HAL_PWREx_DisableBkUpReg
                0x00000000       0x68 embedded-software\mcu-hal\STM32F4xx_HAL_Driver\libfoxbms-stmhal.a(stm32f4xx_hal_pwr_ex.c.1.o)
 .text.HAL_PWREx_EnableFlashPowerDown
                0x00000000       0x34 embedded-software\mcu-hal\STM32F4xx_HAL_Driver\libfoxbms-stmhal.a(stm32f4xx_hal_pwr_ex.c.1.o)
 .text.HAL_PWREx_DisableFlashPowerDown
                0x00000000       0x34 embedded-software\mcu-hal\STM32F4xx_HAL_Driver\libfoxbms-stmhal.a(stm32f4xx_hal_pwr_ex.c.1.o)
 .text.HAL_PWREx_GetVoltageRange
                0x00000000       0x1c embedded-software\mcu-hal\STM32F4xx_HAL_Driver\libfoxbms-stmhal.a(stm32f4xx_hal_pwr_ex.c.1.o)
 .rodata        0x00000000       0x50 embedded-software\mcu-hal\STM32F4xx_HAL_Driver\libfoxbms-stmhal.a(stm32f4xx_hal_pwr_ex.c.1.o)
 .text.HAL_PWREx_ControlVoltageScaling
                0x00000000      0x118 embedded-software\mcu-hal\STM32F4xx_HAL_Driver\libfoxbms-stmhal.a(stm32f4xx_hal_pwr_ex.c.1.o)
 .text.HAL_PWREx_EnableOverDrive
                0x00000000       0xd0 embedded-software\mcu-hal\STM32F4xx_HAL_Driver\libfoxbms-stmhal.a(stm32f4xx_hal_pwr_ex.c.1.o)
 .text.HAL_PWREx_DisableOverDrive
                0x00000000       0xd0 embedded-software\mcu-hal\STM32F4xx_HAL_Driver\libfoxbms-stmhal.a(stm32f4xx_hal_pwr_ex.c.1.o)
 .text.HAL_PWREx_EnterUnderDriveSTOPMode
                0x00000000      0x104 embedded-software\mcu-hal\STM32F4xx_HAL_Driver\libfoxbms-stmhal.a(stm32f4xx_hal_pwr_ex.c.1.o)
 .text          0x00000000        0x0 embedded-software\mcu-hal\STM32F4xx_HAL_Driver\libfoxbms-stmhal.a(stm32f4xx_hal_rcc.c.1.o)
 .data          0x00000000        0x0 embedded-software\mcu-hal\STM32F4xx_HAL_Driver\libfoxbms-stmhal.a(stm32f4xx_hal_rcc.c.1.o)
 .bss           0x00000000        0x0 embedded-software\mcu-hal\STM32F4xx_HAL_Driver\libfoxbms-stmhal.a(stm32f4xx_hal_rcc.c.1.o)
 .text.HAL_RCC_DeInit
                0x00000000        0xc embedded-software\mcu-hal\STM32F4xx_HAL_Driver\libfoxbms-stmhal.a(stm32f4xx_hal_rcc.c.1.o)
 .text.HAL_RCC_MCOConfig
                0x00000000      0x168 embedded-software\mcu-hal\STM32F4xx_HAL_Driver\libfoxbms-stmhal.a(stm32f4xx_hal_rcc.c.1.o)
 .text.HAL_RCC_EnableCSS
                0x00000000       0x18 embedded-software\mcu-hal\STM32F4xx_HAL_Driver\libfoxbms-stmhal.a(stm32f4xx_hal_rcc.c.1.o)
 .text.HAL_RCC_DisableCSS
                0x00000000       0x18 embedded-software\mcu-hal\STM32F4xx_HAL_Driver\libfoxbms-stmhal.a(stm32f4xx_hal_rcc.c.1.o)
 .text.HAL_RCC_GetOscConfig
                0x00000000      0x170 embedded-software\mcu-hal\STM32F4xx_HAL_Driver\libfoxbms-stmhal.a(stm32f4xx_hal_rcc.c.1.o)
 .text.HAL_RCC_GetClockConfig
                0x00000000       0x60 embedded-software\mcu-hal\STM32F4xx_HAL_Driver\libfoxbms-stmhal.a(stm32f4xx_hal_rcc.c.1.o)
 .text.HAL_RCC_NMI_IRQHandler
                0x00000000       0x24 embedded-software\mcu-hal\STM32F4xx_HAL_Driver\libfoxbms-stmhal.a(stm32f4xx_hal_rcc.c.1.o)
 .text.HAL_RCC_CSSCallback
                0x00000000        0xc embedded-software\mcu-hal\STM32F4xx_HAL_Driver\libfoxbms-stmhal.a(stm32f4xx_hal_rcc.c.1.o)
 .text          0x00000000        0x0 embedded-software\mcu-hal\STM32F4xx_HAL_Driver\libfoxbms-stmhal.a(stm32f4xx_hal_rcc_ex.c.1.o)
 .data          0x00000000        0x0 embedded-software\mcu-hal\STM32F4xx_HAL_Driver\libfoxbms-stmhal.a(stm32f4xx_hal_rcc_ex.c.1.o)
 .bss           0x00000000        0x0 embedded-software\mcu-hal\STM32F4xx_HAL_Driver\libfoxbms-stmhal.a(stm32f4xx_hal_rcc_ex.c.1.o)
 .text.HAL_RCC_DeInit
                0x00000000       0x84 embedded-software\mcu-hal\STM32F4xx_HAL_Driver\libfoxbms-stmhal.a(stm32f4xx_hal_rcc_ex.c.1.o)
 .text.HAL_RCCEx_GetPeriphCLKConfig
                0x00000000      0x18c embedded-software\mcu-hal\STM32F4xx_HAL_Driver\libfoxbms-stmhal.a(stm32f4xx_hal_rcc_ex.c.1.o)
 .text          0x00000000        0x0 embedded-software\mcu-hal\STM32F4xx_HAL_Driver\libfoxbms-stmhal.a(stm32f4xx_hal_rtc.c.1.o)
 .data          0x00000000        0x0 embedded-software\mcu-hal\STM32F4xx_HAL_Driver\libfoxbms-stmhal.a(stm32f4xx_hal_rtc.c.1.o)
 .bss           0x00000000        0x0 embedded-software\mcu-hal\STM32F4xx_HAL_Driver\libfoxbms-stmhal.a(stm32f4xx_hal_rtc.c.1.o)
 .text.HAL_RTC_DeInit
                0x00000000      0x158 embedded-software\mcu-hal\STM32F4xx_HAL_Driver\libfoxbms-stmhal.a(stm32f4xx_hal_rtc.c.1.o)
 .text.HAL_RTC_MspDeInit
                0x00000000       0x14 embedded-software\mcu-hal\STM32F4xx_HAL_Driver\libfoxbms-stmhal.a(stm32f4xx_hal_rtc.c.1.o)
 .text.HAL_RTC_SetAlarm
                0x00000000      0x544 embedded-software\mcu-hal\STM32F4xx_HAL_Driver\libfoxbms-stmhal.a(stm32f4xx_hal_rtc.c.1.o)
 .text.HAL_RTC_SetAlarm_IT
                0x00000000      0x580 embedded-software\mcu-hal\STM32F4xx_HAL_Driver\libfoxbms-stmhal.a(stm32f4xx_hal_rtc.c.1.o)
 .text.HAL_RTC_DeactivateAlarm
                0x00000000      0x138 embedded-software\mcu-hal\STM32F4xx_HAL_Driver\libfoxbms-stmhal.a(stm32f4xx_hal_rtc.c.1.o)
 .text.HAL_RTC_GetAlarm
                0x00000000      0x14c embedded-software\mcu-hal\STM32F4xx_HAL_Driver\libfoxbms-stmhal.a(stm32f4xx_hal_rtc.c.1.o)
 .text.HAL_RTC_AlarmIRQHandler
                0x00000000       0x88 embedded-software\mcu-hal\STM32F4xx_HAL_Driver\libfoxbms-stmhal.a(stm32f4xx_hal_rtc.c.1.o)
 .text.HAL_RTC_AlarmAEventCallback
                0x00000000       0x14 embedded-software\mcu-hal\STM32F4xx_HAL_Driver\libfoxbms-stmhal.a(stm32f4xx_hal_rtc.c.1.o)
 .text.HAL_RTC_PollForAlarmAEvent
                0x00000000       0x70 embedded-software\mcu-hal\STM32F4xx_HAL_Driver\libfoxbms-stmhal.a(stm32f4xx_hal_rtc.c.1.o)
 .text.HAL_RTC_GetState
                0x00000000       0x1c embedded-software\mcu-hal\STM32F4xx_HAL_Driver\libfoxbms-stmhal.a(stm32f4xx_hal_rtc.c.1.o)
 .text          0x00000000        0x0 embedded-software\mcu-hal\STM32F4xx_HAL_Driver\libfoxbms-stmhal.a(stm32f4xx_hal_rtc_ex.c.1.o)
 .data          0x00000000        0x0 embedded-software\mcu-hal\STM32F4xx_HAL_Driver\libfoxbms-stmhal.a(stm32f4xx_hal_rtc_ex.c.1.o)
 .bss           0x00000000        0x0 embedded-software\mcu-hal\STM32F4xx_HAL_Driver\libfoxbms-stmhal.a(stm32f4xx_hal_rtc_ex.c.1.o)
 .rodata        0x00000000       0x50 embedded-software\mcu-hal\STM32F4xx_HAL_Driver\libfoxbms-stmhal.a(stm32f4xx_hal_rtc_ex.c.1.o)
 .text.HAL_RTCEx_SetTimeStamp
                0x00000000       0xd4 embedded-software\mcu-hal\STM32F4xx_HAL_Driver\libfoxbms-stmhal.a(stm32f4xx_hal_rtc_ex.c.1.o)
 .text.HAL_RTCEx_SetTimeStamp_IT
                0x00000000      0x114 embedded-software\mcu-hal\STM32F4xx_HAL_Driver\libfoxbms-stmhal.a(stm32f4xx_hal_rtc_ex.c.1.o)
 .text.HAL_RTCEx_DeactivateTimeStamp
                0x00000000       0x80 embedded-software\mcu-hal\STM32F4xx_HAL_Driver\libfoxbms-stmhal.a(stm32f4xx_hal_rtc_ex.c.1.o)
 .text.HAL_RTCEx_GetTimeStamp
                0x00000000      0x150 embedded-software\mcu-hal\STM32F4xx_HAL_Driver\libfoxbms-stmhal.a(stm32f4xx_hal_rtc_ex.c.1.o)
 .text.HAL_RTCEx_SetTamper
                0x00000000      0x1fc embedded-software\mcu-hal\STM32F4xx_HAL_Driver\libfoxbms-stmhal.a(stm32f4xx_hal_rtc_ex.c.1.o)
 .text.HAL_RTCEx_SetTamper_IT
                0x00000000      0x258 embedded-software\mcu-hal\STM32F4xx_HAL_Driver\libfoxbms-stmhal.a(stm32f4xx_hal_rtc_ex.c.1.o)
 .text.HAL_RTCEx_DeactivateTamper
                0x00000000       0x60 embedded-software\mcu-hal\STM32F4xx_HAL_Driver\libfoxbms-stmhal.a(stm32f4xx_hal_rtc_ex.c.1.o)
 .text.HAL_RTCEx_TamperTimeStampIRQHandler
                0x00000000       0xbc embedded-software\mcu-hal\STM32F4xx_HAL_Driver\libfoxbms-stmhal.a(stm32f4xx_hal_rtc_ex.c.1.o)
 .text.HAL_RTCEx_TimeStampEventCallback
                0x00000000       0x14 embedded-software\mcu-hal\STM32F4xx_HAL_Driver\libfoxbms-stmhal.a(stm32f4xx_hal_rtc_ex.c.1.o)
 .text.HAL_RTCEx_Tamper1EventCallback
                0x00000000       0x14 embedded-software\mcu-hal\STM32F4xx_HAL_Driver\libfoxbms-stmhal.a(stm32f4xx_hal_rtc_ex.c.1.o)
 .text.HAL_RTCEx_Tamper2EventCallback
                0x00000000       0x14 embedded-software\mcu-hal\STM32F4xx_HAL_Driver\libfoxbms-stmhal.a(stm32f4xx_hal_rtc_ex.c.1.o)
 .text.HAL_RTCEx_PollForTimeStampEvent
                0x00000000       0x88 embedded-software\mcu-hal\STM32F4xx_HAL_Driver\libfoxbms-stmhal.a(stm32f4xx_hal_rtc_ex.c.1.o)
 .text.HAL_RTCEx_PollForTamper1Event
                0x00000000       0x70 embedded-software\mcu-hal\STM32F4xx_HAL_Driver\libfoxbms-stmhal.a(stm32f4xx_hal_rtc_ex.c.1.o)
 .text.HAL_RTCEx_PollForTamper2Event
                0x00000000       0x70 embedded-software\mcu-hal\STM32F4xx_HAL_Driver\libfoxbms-stmhal.a(stm32f4xx_hal_rtc_ex.c.1.o)
 .text.HAL_RTCEx_SetWakeUpTimer
                0x00000000      0x16c embedded-software\mcu-hal\STM32F4xx_HAL_Driver\libfoxbms-stmhal.a(stm32f4xx_hal_rtc_ex.c.1.o)
 .text.HAL_RTCEx_SetWakeUpTimer_IT
                0x00000000      0x1c0 embedded-software\mcu-hal\STM32F4xx_HAL_Driver\libfoxbms-stmhal.a(stm32f4xx_hal_rtc_ex.c.1.o)
 .text.HAL_RTCEx_GetWakeUpTimer
                0x00000000       0x1c embedded-software\mcu-hal\STM32F4xx_HAL_Driver\libfoxbms-stmhal.a(stm32f4xx_hal_rtc_ex.c.1.o)
 .text.HAL_RTCEx_WakeUpTimerIRQHandler
                0x00000000       0x54 embedded-software\mcu-hal\STM32F4xx_HAL_Driver\libfoxbms-stmhal.a(stm32f4xx_hal_rtc_ex.c.1.o)
 .text.HAL_RTCEx_WakeUpTimerEventCallback
                0x00000000       0x14 embedded-software\mcu-hal\STM32F4xx_HAL_Driver\libfoxbms-stmhal.a(stm32f4xx_hal_rtc_ex.c.1.o)
 .text.HAL_RTCEx_PollForWakeUpTimerEvent
                0x00000000       0x70 embedded-software\mcu-hal\STM32F4xx_HAL_Driver\libfoxbms-stmhal.a(stm32f4xx_hal_rtc_ex.c.1.o)
 .text.HAL_RTCEx_BKUPWrite
                0x00000000       0xb4 embedded-software\mcu-hal\STM32F4xx_HAL_Driver\libfoxbms-stmhal.a(stm32f4xx_hal_rtc_ex.c.1.o)
 .text.HAL_RTCEx_BKUPRead
                0x00000000       0xb4 embedded-software\mcu-hal\STM32F4xx_HAL_Driver\libfoxbms-stmhal.a(stm32f4xx_hal_rtc_ex.c.1.o)
 .text.HAL_RTCEx_SetCoarseCalib
                0x00000000       0xcc embedded-software\mcu-hal\STM32F4xx_HAL_Driver\libfoxbms-stmhal.a(stm32f4xx_hal_rtc_ex.c.1.o)
 .text.HAL_RTCEx_DeactivateCoarseCalib
                0x00000000       0x94 embedded-software\mcu-hal\STM32F4xx_HAL_Driver\libfoxbms-stmhal.a(stm32f4xx_hal_rtc_ex.c.1.o)
 .text.HAL_RTCEx_SetSmoothCalib
                0x00000000      0x104 embedded-software\mcu-hal\STM32F4xx_HAL_Driver\libfoxbms-stmhal.a(stm32f4xx_hal_rtc_ex.c.1.o)
 .text.HAL_RTCEx_SetSynchroShift
                0x00000000      0x128 embedded-software\mcu-hal\STM32F4xx_HAL_Driver\libfoxbms-stmhal.a(stm32f4xx_hal_rtc_ex.c.1.o)
 .text.HAL_RTCEx_SetCalibrationOutPut
                0x00000000       0x9c embedded-software\mcu-hal\STM32F4xx_HAL_Driver\libfoxbms-stmhal.a(stm32f4xx_hal_rtc_ex.c.1.o)
 .text.HAL_RTCEx_DeactivateCalibrationOutPut
                0x00000000       0x64 embedded-software\mcu-hal\STM32F4xx_HAL_Driver\libfoxbms-stmhal.a(stm32f4xx_hal_rtc_ex.c.1.o)
 .text.HAL_RTCEx_SetRefClock
                0x00000000       0x94 embedded-software\mcu-hal\STM32F4xx_HAL_Driver\libfoxbms-stmhal.a(stm32f4xx_hal_rtc_ex.c.1.o)
 .text.HAL_RTCEx_DeactivateRefClock
                0x00000000       0x94 embedded-software\mcu-hal\STM32F4xx_HAL_Driver\libfoxbms-stmhal.a(stm32f4xx_hal_rtc_ex.c.1.o)
 .text.HAL_RTCEx_EnableBypassShadow
                0x00000000       0x64 embedded-software\mcu-hal\STM32F4xx_HAL_Driver\libfoxbms-stmhal.a(stm32f4xx_hal_rtc_ex.c.1.o)
 .text.HAL_RTCEx_DisableBypassShadow
                0x00000000       0x64 embedded-software\mcu-hal\STM32F4xx_HAL_Driver\libfoxbms-stmhal.a(stm32f4xx_hal_rtc_ex.c.1.o)
 .text.HAL_RTCEx_AlarmBEventCallback
                0x00000000       0x14 embedded-software\mcu-hal\STM32F4xx_HAL_Driver\libfoxbms-stmhal.a(stm32f4xx_hal_rtc_ex.c.1.o)
 .text.HAL_RTCEx_PollForAlarmBEvent
                0x00000000       0x70 embedded-software\mcu-hal\STM32F4xx_HAL_Driver\libfoxbms-stmhal.a(stm32f4xx_hal_rtc_ex.c.1.o)
 .text          0x00000000        0x0 embedded-software\mcu-hal\STM32F4xx_HAL_Driver\libfoxbms-stmhal.a(stm32f4xx_hal_spi.c.1.o)
 .data          0x00000000        0x0 embedded-software\mcu-hal\STM32F4xx_HAL_Driver\libfoxbms-stmhal.a(stm32f4xx_hal_spi.c.1.o)
 .bss           0x00000000        0x0 embedded-software\mcu-hal\STM32F4xx_HAL_Driver\libfoxbms-stmhal.a(stm32f4xx_hal_spi.c.1.o)
 .text.HAL_SPI_DeInit
                0x00000000       0xb4 embedded-software\mcu-hal\STM32F4xx_HAL_Driver\libfoxbms-stmhal.a(stm32f4xx_hal_spi.c.1.o)
 .text.HAL_SPI_MspInit
                0x00000000       0x14 embedded-software\mcu-hal\STM32F4xx_HAL_Driver\libfoxbms-stmhal.a(stm32f4xx_hal_spi.c.1.o)
 .text.HAL_SPI_MspDeInit
                0x00000000       0x14 embedded-software\mcu-hal\STM32F4xx_HAL_Driver\libfoxbms-stmhal.a(stm32f4xx_hal_spi.c.1.o)
 .text.HAL_SPI_Transmit
                0x00000000      0x298 embedded-software\mcu-hal\STM32F4xx_HAL_Driver\libfoxbms-stmhal.a(stm32f4xx_hal_spi.c.1.o)
 .text.HAL_SPI_Receive
                0x00000000      0x220 embedded-software\mcu-hal\STM32F4xx_HAL_Driver\libfoxbms-stmhal.a(stm32f4xx_hal_spi.c.1.o)
 .text.HAL_SPI_TransmitReceive
                0x00000000      0x358 embedded-software\mcu-hal\STM32F4xx_HAL_Driver\libfoxbms-stmhal.a(stm32f4xx_hal_spi.c.1.o)
 .text.HAL_SPI_Transmit_IT
                0x00000000      0x138 embedded-software\mcu-hal\STM32F4xx_HAL_Driver\libfoxbms-stmhal.a(stm32f4xx_hal_spi.c.1.o)
 .text.HAL_SPI_Receive_IT
                0x00000000      0x128 embedded-software\mcu-hal\STM32F4xx_HAL_Driver\libfoxbms-stmhal.a(stm32f4xx_hal_spi.c.1.o)
 .text.HAL_SPI_TransmitReceive_IT
                0x00000000      0x140 embedded-software\mcu-hal\STM32F4xx_HAL_Driver\libfoxbms-stmhal.a(stm32f4xx_hal_spi.c.1.o)
 .text.HAL_SPI_Receive_DMA
                0x00000000      0x164 embedded-software\mcu-hal\STM32F4xx_HAL_Driver\libfoxbms-stmhal.a(stm32f4xx_hal_spi.c.1.o)
 .text.HAL_SPI_DMAStop
                0x00000000       0x50 embedded-software\mcu-hal\STM32F4xx_HAL_Driver\libfoxbms-stmhal.a(stm32f4xx_hal_spi.c.1.o)
 .text.HAL_SPI_TxCpltCallback
                0x00000000       0x14 embedded-software\mcu-hal\STM32F4xx_HAL_Driver\libfoxbms-stmhal.a(stm32f4xx_hal_spi.c.1.o)
 .text.HAL_SPI_TxRxCpltCallback
                0x00000000       0x14 embedded-software\mcu-hal\STM32F4xx_HAL_Driver\libfoxbms-stmhal.a(stm32f4xx_hal_spi.c.1.o)
 .text.HAL_SPI_GetState
                0x00000000       0x1c embedded-software\mcu-hal\STM32F4xx_HAL_Driver\libfoxbms-stmhal.a(stm32f4xx_hal_spi.c.1.o)
 .text.HAL_SPI_GetError
                0x00000000       0x18 embedded-software\mcu-hal\STM32F4xx_HAL_Driver\libfoxbms-stmhal.a(stm32f4xx_hal_spi.c.1.o)
 .text.SPI_2linesRxISR_8BIT
                0x00000000       0x5c embedded-software\mcu-hal\STM32F4xx_HAL_Driver\libfoxbms-stmhal.a(stm32f4xx_hal_spi.c.1.o)
 .text.SPI_2linesTxISR_8BIT
                0x00000000       0x5c embedded-software\mcu-hal\STM32F4xx_HAL_Driver\libfoxbms-stmhal.a(stm32f4xx_hal_spi.c.1.o)
 .text.SPI_2linesRxISR_16BIT
                0x00000000       0x60 embedded-software\mcu-hal\STM32F4xx_HAL_Driver\libfoxbms-stmhal.a(stm32f4xx_hal_spi.c.1.o)
 .text.SPI_2linesTxISR_16BIT
                0x00000000       0x5c embedded-software\mcu-hal\STM32F4xx_HAL_Driver\libfoxbms-stmhal.a(stm32f4xx_hal_spi.c.1.o)
 .text.SPI_RxISR_8BIT
                0x00000000       0x44 embedded-software\mcu-hal\STM32F4xx_HAL_Driver\libfoxbms-stmhal.a(stm32f4xx_hal_spi.c.1.o)
 .text.SPI_RxISR_16BIT
                0x00000000       0x44 embedded-software\mcu-hal\STM32F4xx_HAL_Driver\libfoxbms-stmhal.a(stm32f4xx_hal_spi.c.1.o)
 .text.SPI_TxISR_8BIT
                0x00000000       0x44 embedded-software\mcu-hal\STM32F4xx_HAL_Driver\libfoxbms-stmhal.a(stm32f4xx_hal_spi.c.1.o)
 .text.SPI_TxISR_16BIT
                0x00000000       0x44 embedded-software\mcu-hal\STM32F4xx_HAL_Driver\libfoxbms-stmhal.a(stm32f4xx_hal_spi.c.1.o)
 .text.SPI_CloseRxTx_ISR
                0x00000000       0xe8 embedded-software\mcu-hal\STM32F4xx_HAL_Driver\libfoxbms-stmhal.a(stm32f4xx_hal_spi.c.1.o)
 .text.SPI_CloseRx_ISR
                0x00000000       0x88 embedded-software\mcu-hal\STM32F4xx_HAL_Driver\libfoxbms-stmhal.a(stm32f4xx_hal_spi.c.1.o)
 .text.SPI_CloseTx_ISR
                0x00000000       0xc4 embedded-software\mcu-hal\STM32F4xx_HAL_Driver\libfoxbms-stmhal.a(stm32f4xx_hal_spi.c.1.o)
 .text          0x00000000        0x0 embedded-software\mcu-hal\STM32F4xx_HAL_Driver\libfoxbms-stmhal.a(stm32f4xx_hal_tim.c.1.o)
 .data          0x00000000        0x0 embedded-software\mcu-hal\STM32F4xx_HAL_Driver\libfoxbms-stmhal.a(stm32f4xx_hal_tim.c.1.o)
 .bss           0x00000000        0x0 embedded-software\mcu-hal\STM32F4xx_HAL_Driver\libfoxbms-stmhal.a(stm32f4xx_hal_tim.c.1.o)
 .rodata        0x00000000       0x4d embedded-software\mcu-hal\STM32F4xx_HAL_Driver\libfoxbms-stmhal.a(stm32f4xx_hal_tim.c.1.o)
 .text.HAL_TIM_Base_Init
                0x00000000      0x178 embedded-software\mcu-hal\STM32F4xx_HAL_Driver\libfoxbms-stmhal.a(stm32f4xx_hal_tim.c.1.o)
 .text.HAL_TIM_Base_DeInit
                0x00000000      0x12c embedded-software\mcu-hal\STM32F4xx_HAL_Driver\libfoxbms-stmhal.a(stm32f4xx_hal_tim.c.1.o)
 .text.HAL_TIM_Base_MspInit
                0x00000000       0x14 embedded-software\mcu-hal\STM32F4xx_HAL_Driver\libfoxbms-stmhal.a(stm32f4xx_hal_tim.c.1.o)
 .text.HAL_TIM_Base_MspDeInit
                0x00000000       0x14 embedded-software\mcu-hal\STM32F4xx_HAL_Driver\libfoxbms-stmhal.a(stm32f4xx_hal_tim.c.1.o)
 .text.HAL_TIM_Base_Start
                0x00000000      0x100 embedded-software\mcu-hal\STM32F4xx_HAL_Driver\libfoxbms-stmhal.a(stm32f4xx_hal_tim.c.1.o)
 .text.HAL_TIM_Base_Stop
                0x00000000      0x120 embedded-software\mcu-hal\STM32F4xx_HAL_Driver\libfoxbms-stmhal.a(stm32f4xx_hal_tim.c.1.o)
 .text.HAL_TIM_Base_Start_IT
                0x00000000      0x100 embedded-software\mcu-hal\STM32F4xx_HAL_Driver\libfoxbms-stmhal.a(stm32f4xx_hal_tim.c.1.o)
 .text.HAL_TIM_Base_Stop_IT
                0x00000000      0x120 embedded-software\mcu-hal\STM32F4xx_HAL_Driver\libfoxbms-stmhal.a(stm32f4xx_hal_tim.c.1.o)
 .text.HAL_TIM_Base_Start_DMA
                0x00000000      0x118 embedded-software\mcu-hal\STM32F4xx_HAL_Driver\libfoxbms-stmhal.a(stm32f4xx_hal_tim.c.1.o)
 .text.HAL_TIM_Base_Stop_DMA
                0x00000000       0xd4 embedded-software\mcu-hal\STM32F4xx_HAL_Driver\libfoxbms-stmhal.a(stm32f4xx_hal_tim.c.1.o)
 .text.HAL_TIM_OC_Init
                0x00000000      0x17c embedded-software\mcu-hal\STM32F4xx_HAL_Driver\libfoxbms-stmhal.a(stm32f4xx_hal_tim.c.1.o)
 .text.HAL_TIM_OC_DeInit
                0x00000000      0x130 embedded-software\mcu-hal\STM32F4xx_HAL_Driver\libfoxbms-stmhal.a(stm32f4xx_hal_tim.c.1.o)
 .text.HAL_TIM_OC_MspInit
                0x00000000       0x14 embedded-software\mcu-hal\STM32F4xx_HAL_Driver\libfoxbms-stmhal.a(stm32f4xx_hal_tim.c.1.o)
 .text.HAL_TIM_OC_MspDeInit
                0x00000000       0x14 embedded-software\mcu-hal\STM32F4xx_HAL_Driver\libfoxbms-stmhal.a(stm32f4xx_hal_tim.c.1.o)
 .text.HAL_TIM_OC_Start
                0x00000000      0x1e0 embedded-software\mcu-hal\STM32F4xx_HAL_Driver\libfoxbms-stmhal.a(stm32f4xx_hal_tim.c.1.o)
 .text.HAL_TIM_OC_Stop
                0x00000000      0x220 embedded-software\mcu-hal\STM32F4xx_HAL_Driver\libfoxbms-stmhal.a(stm32f4xx_hal_tim.c.1.o)
 .text.HAL_TIM_OC_Start_IT
                0x00000000      0x26c embedded-software\mcu-hal\STM32F4xx_HAL_Driver\libfoxbms-stmhal.a(stm32f4xx_hal_tim.c.1.o)
 .text.HAL_TIM_OC_Stop_IT
                0x00000000      0x2ac embedded-software\mcu-hal\STM32F4xx_HAL_Driver\libfoxbms-stmhal.a(stm32f4xx_hal_tim.c.1.o)
 .text.HAL_TIM_OC_Start_DMA
                0x00000000      0x364 embedded-software\mcu-hal\STM32F4xx_HAL_Driver\libfoxbms-stmhal.a(stm32f4xx_hal_tim.c.1.o)
 .text.HAL_TIM_OC_Stop_DMA
                0x00000000      0x2b4 embedded-software\mcu-hal\STM32F4xx_HAL_Driver\libfoxbms-stmhal.a(stm32f4xx_hal_tim.c.1.o)
 .text.HAL_TIM_PWM_Init
                0x00000000      0x17c embedded-software\mcu-hal\STM32F4xx_HAL_Driver\libfoxbms-stmhal.a(stm32f4xx_hal_tim.c.1.o)
 .text.HAL_TIM_PWM_DeInit
                0x00000000      0x130 embedded-software\mcu-hal\STM32F4xx_HAL_Driver\libfoxbms-stmhal.a(stm32f4xx_hal_tim.c.1.o)
 .text.HAL_TIM_PWM_MspInit
                0x00000000       0x14 embedded-software\mcu-hal\STM32F4xx_HAL_Driver\libfoxbms-stmhal.a(stm32f4xx_hal_tim.c.1.o)
 .text.HAL_TIM_PWM_MspDeInit
                0x00000000       0x14 embedded-software\mcu-hal\STM32F4xx_HAL_Driver\libfoxbms-stmhal.a(stm32f4xx_hal_tim.c.1.o)
 .text.HAL_TIM_PWM_Start
                0x00000000      0x1e0 embedded-software\mcu-hal\STM32F4xx_HAL_Driver\libfoxbms-stmhal.a(stm32f4xx_hal_tim.c.1.o)
 .text.HAL_TIM_PWM_Stop
                0x00000000      0x228 embedded-software\mcu-hal\STM32F4xx_HAL_Driver\libfoxbms-stmhal.a(stm32f4xx_hal_tim.c.1.o)
 .text.HAL_TIM_PWM_Start_IT
                0x00000000      0x26c embedded-software\mcu-hal\STM32F4xx_HAL_Driver\libfoxbms-stmhal.a(stm32f4xx_hal_tim.c.1.o)
 .text.HAL_TIM_PWM_Stop_IT
                0x00000000      0x2ac embedded-software\mcu-hal\STM32F4xx_HAL_Driver\libfoxbms-stmhal.a(stm32f4xx_hal_tim.c.1.o)
 .text.HAL_TIM_PWM_Start_DMA
                0x00000000      0x364 embedded-software\mcu-hal\STM32F4xx_HAL_Driver\libfoxbms-stmhal.a(stm32f4xx_hal_tim.c.1.o)
 .text.HAL_TIM_PWM_Stop_DMA
                0x00000000      0x2b4 embedded-software\mcu-hal\STM32F4xx_HAL_Driver\libfoxbms-stmhal.a(stm32f4xx_hal_tim.c.1.o)
 .text.HAL_TIM_IC_Init
                0x00000000      0x17c embedded-software\mcu-hal\STM32F4xx_HAL_Driver\libfoxbms-stmhal.a(stm32f4xx_hal_tim.c.1.o)
 .text.HAL_TIM_IC_DeInit
                0x00000000      0x130 embedded-software\mcu-hal\STM32F4xx_HAL_Driver\libfoxbms-stmhal.a(stm32f4xx_hal_tim.c.1.o)
 .text.HAL_TIM_IC_MspInit
                0x00000000       0x14 embedded-software\mcu-hal\STM32F4xx_HAL_Driver\libfoxbms-stmhal.a(stm32f4xx_hal_tim.c.1.o)
 .text.HAL_TIM_IC_MspDeInit
                0x00000000       0x14 embedded-software\mcu-hal\STM32F4xx_HAL_Driver\libfoxbms-stmhal.a(stm32f4xx_hal_tim.c.1.o)
 .text.HAL_TIM_IC_Start
                0x00000000      0x1b4 embedded-software\mcu-hal\STM32F4xx_HAL_Driver\libfoxbms-stmhal.a(stm32f4xx_hal_tim.c.1.o)
 .text.HAL_TIM_IC_Stop
                0x00000000      0x1d4 embedded-software\mcu-hal\STM32F4xx_HAL_Driver\libfoxbms-stmhal.a(stm32f4xx_hal_tim.c.1.o)
 .text.HAL_TIM_IC_Start_IT
                0x00000000      0x240 embedded-software\mcu-hal\STM32F4xx_HAL_Driver\libfoxbms-stmhal.a(stm32f4xx_hal_tim.c.1.o)
 .text.HAL_TIM_IC_Stop_IT
                0x00000000      0x260 embedded-software\mcu-hal\STM32F4xx_HAL_Driver\libfoxbms-stmhal.a(stm32f4xx_hal_tim.c.1.o)
 .text.HAL_TIM_IC_Start_DMA
                0x00000000      0x370 embedded-software\mcu-hal\STM32F4xx_HAL_Driver\libfoxbms-stmhal.a(stm32f4xx_hal_tim.c.1.o)
 .text.HAL_TIM_IC_Stop_DMA
                0x00000000      0x2ac embedded-software\mcu-hal\STM32F4xx_HAL_Driver\libfoxbms-stmhal.a(stm32f4xx_hal_tim.c.1.o)
 .text.HAL_TIM_OnePulse_Init
                0x00000000      0x1b4 embedded-software\mcu-hal\STM32F4xx_HAL_Driver\libfoxbms-stmhal.a(stm32f4xx_hal_tim.c.1.o)
 .text.HAL_TIM_OnePulse_DeInit
                0x00000000      0x130 embedded-software\mcu-hal\STM32F4xx_HAL_Driver\libfoxbms-stmhal.a(stm32f4xx_hal_tim.c.1.o)
 .text.HAL_TIM_OnePulse_MspInit
                0x00000000       0x14 embedded-software\mcu-hal\STM32F4xx_HAL_Driver\libfoxbms-stmhal.a(stm32f4xx_hal_tim.c.1.o)
 .text.HAL_TIM_OnePulse_MspDeInit
                0x00000000       0x14 embedded-software\mcu-hal\STM32F4xx_HAL_Driver\libfoxbms-stmhal.a(stm32f4xx_hal_tim.c.1.o)
 .text.HAL_TIM_OnePulse_Start
                0x00000000       0x68 embedded-software\mcu-hal\STM32F4xx_HAL_Driver\libfoxbms-stmhal.a(stm32f4xx_hal_tim.c.1.o)
 .text.HAL_TIM_OnePulse_Stop
                0x00000000       0xb8 embedded-software\mcu-hal\STM32F4xx_HAL_Driver\libfoxbms-stmhal.a(stm32f4xx_hal_tim.c.1.o)
 .text.HAL_TIM_OnePulse_Start_IT
                0x00000000       0x88 embedded-software\mcu-hal\STM32F4xx_HAL_Driver\libfoxbms-stmhal.a(stm32f4xx_hal_tim.c.1.o)
 .text.HAL_TIM_OnePulse_Stop_IT
                0x00000000       0xd8 embedded-software\mcu-hal\STM32F4xx_HAL_Driver\libfoxbms-stmhal.a(stm32f4xx_hal_tim.c.1.o)
 .text.HAL_TIM_Encoder_Init
                0x00000000      0x2cc embedded-software\mcu-hal\STM32F4xx_HAL_Driver\libfoxbms-stmhal.a(stm32f4xx_hal_tim.c.1.o)
 .text.HAL_TIM_Encoder_DeInit
                0x00000000      0x130 embedded-software\mcu-hal\STM32F4xx_HAL_Driver\libfoxbms-stmhal.a(stm32f4xx_hal_tim.c.1.o)
 .text.HAL_TIM_Encoder_MspInit
                0x00000000       0x14 embedded-software\mcu-hal\STM32F4xx_HAL_Driver\libfoxbms-stmhal.a(stm32f4xx_hal_tim.c.1.o)
 .text.HAL_TIM_Encoder_MspDeInit
                0x00000000       0x14 embedded-software\mcu-hal\STM32F4xx_HAL_Driver\libfoxbms-stmhal.a(stm32f4xx_hal_tim.c.1.o)
 .text.HAL_TIM_Encoder_Start
                0x00000000       0xe8 embedded-software\mcu-hal\STM32F4xx_HAL_Driver\libfoxbms-stmhal.a(stm32f4xx_hal_tim.c.1.o)
 .text.HAL_TIM_Encoder_Stop
                0x00000000      0x108 embedded-software\mcu-hal\STM32F4xx_HAL_Driver\libfoxbms-stmhal.a(stm32f4xx_hal_tim.c.1.o)
 .text.HAL_TIM_Encoder_Start_IT
                0x00000000      0x128 embedded-software\mcu-hal\STM32F4xx_HAL_Driver\libfoxbms-stmhal.a(stm32f4xx_hal_tim.c.1.o)
 .text.HAL_TIM_Encoder_Stop_IT
                0x00000000      0x150 embedded-software\mcu-hal\STM32F4xx_HAL_Driver\libfoxbms-stmhal.a(stm32f4xx_hal_tim.c.1.o)
 .text.HAL_TIM_Encoder_Start_DMA
                0x00000000      0x218 embedded-software\mcu-hal\STM32F4xx_HAL_Driver\libfoxbms-stmhal.a(stm32f4xx_hal_tim.c.1.o)
 .text.HAL_TIM_Encoder_Stop_DMA
                0x00000000      0x134 embedded-software\mcu-hal\STM32F4xx_HAL_Driver\libfoxbms-stmhal.a(stm32f4xx_hal_tim.c.1.o)
 .text.HAL_TIM_IRQHandler
                0x00000000      0x210 embedded-software\mcu-hal\STM32F4xx_HAL_Driver\libfoxbms-stmhal.a(stm32f4xx_hal_tim.c.1.o)
 .text.HAL_TIM_OC_ConfigChannel
                0x00000000      0x2d4 embedded-software\mcu-hal\STM32F4xx_HAL_Driver\libfoxbms-stmhal.a(stm32f4xx_hal_tim.c.1.o)
 .text.HAL_TIM_IC_ConfigChannel
                0x00000000      0x368 embedded-software\mcu-hal\STM32F4xx_HAL_Driver\libfoxbms-stmhal.a(stm32f4xx_hal_tim.c.1.o)
 .text.HAL_TIM_PWM_ConfigChannel
                0x00000000      0x3b8 embedded-software\mcu-hal\STM32F4xx_HAL_Driver\libfoxbms-stmhal.a(stm32f4xx_hal_tim.c.1.o)
 .text.HAL_TIM_OnePulse_ConfigChannel
                0x00000000      0x3c8 embedded-software\mcu-hal\STM32F4xx_HAL_Driver\libfoxbms-stmhal.a(stm32f4xx_hal_tim.c.1.o)
 .text.HAL_TIM_DMABurst_WriteStart
                0x00000000      0x3ac embedded-software\mcu-hal\STM32F4xx_HAL_Driver\libfoxbms-stmhal.a(stm32f4xx_hal_tim.c.1.o)
 .text.HAL_TIM_DMABurst_WriteStop
                0x00000000       0xd0 embedded-software\mcu-hal\STM32F4xx_HAL_Driver\libfoxbms-stmhal.a(stm32f4xx_hal_tim.c.1.o)
 .text.HAL_TIM_DMABurst_ReadStart
                0x00000000      0x39c embedded-software\mcu-hal\STM32F4xx_HAL_Driver\libfoxbms-stmhal.a(stm32f4xx_hal_tim.c.1.o)
 .text.HAL_TIM_DMABurst_ReadStop
                0x00000000       0xd0 embedded-software\mcu-hal\STM32F4xx_HAL_Driver\libfoxbms-stmhal.a(stm32f4xx_hal_tim.c.1.o)
 .text.HAL_TIM_GenerateEvent
                0x00000000      0x134 embedded-software\mcu-hal\STM32F4xx_HAL_Driver\libfoxbms-stmhal.a(stm32f4xx_hal_tim.c.1.o)
 .text.HAL_TIM_ConfigOCrefClear
                0x00000000      0x3a8 embedded-software\mcu-hal\STM32F4xx_HAL_Driver\libfoxbms-stmhal.a(stm32f4xx_hal_tim.c.1.o)
 .text.HAL_TIM_ConfigClockSource
                0x00000000      0x890 embedded-software\mcu-hal\STM32F4xx_HAL_Driver\libfoxbms-stmhal.a(stm32f4xx_hal_tim.c.1.o)
 .text.HAL_TIM_ConfigTI1Input
                0x00000000       0xac embedded-software\mcu-hal\STM32F4xx_HAL_Driver\libfoxbms-stmhal.a(stm32f4xx_hal_tim.c.1.o)
 .text.HAL_TIM_SlaveConfigSynchronization
                0x00000000      0x160 embedded-software\mcu-hal\STM32F4xx_HAL_Driver\libfoxbms-stmhal.a(stm32f4xx_hal_tim.c.1.o)
 .text.HAL_TIM_SlaveConfigSynchronization_IT
                0x00000000      0x160 embedded-software\mcu-hal\STM32F4xx_HAL_Driver\libfoxbms-stmhal.a(stm32f4xx_hal_tim.c.1.o)
 .text.HAL_TIM_ReadCapturedValue
                0x00000000      0x23c embedded-software\mcu-hal\STM32F4xx_HAL_Driver\libfoxbms-stmhal.a(stm32f4xx_hal_tim.c.1.o)
 .text.HAL_TIM_PeriodElapsedCallback
                0x00000000       0x14 embedded-software\mcu-hal\STM32F4xx_HAL_Driver\libfoxbms-stmhal.a(stm32f4xx_hal_tim.c.1.o)
 .text.HAL_TIM_OC_DelayElapsedCallback
                0x00000000       0x14 embedded-software\mcu-hal\STM32F4xx_HAL_Driver\libfoxbms-stmhal.a(stm32f4xx_hal_tim.c.1.o)
 .text.HAL_TIM_IC_CaptureCallback
                0x00000000       0x14 embedded-software\mcu-hal\STM32F4xx_HAL_Driver\libfoxbms-stmhal.a(stm32f4xx_hal_tim.c.1.o)
 .text.HAL_TIM_PWM_PulseFinishedCallback
                0x00000000       0x14 embedded-software\mcu-hal\STM32F4xx_HAL_Driver\libfoxbms-stmhal.a(stm32f4xx_hal_tim.c.1.o)
 .text.HAL_TIM_TriggerCallback
                0x00000000       0x14 embedded-software\mcu-hal\STM32F4xx_HAL_Driver\libfoxbms-stmhal.a(stm32f4xx_hal_tim.c.1.o)
 .text.HAL_TIM_ErrorCallback
                0x00000000       0x14 embedded-software\mcu-hal\STM32F4xx_HAL_Driver\libfoxbms-stmhal.a(stm32f4xx_hal_tim.c.1.o)
 .text.HAL_TIM_Base_GetState
                0x00000000       0x1c embedded-software\mcu-hal\STM32F4xx_HAL_Driver\libfoxbms-stmhal.a(stm32f4xx_hal_tim.c.1.o)
 .text.HAL_TIM_OC_GetState
                0x00000000       0x1c embedded-software\mcu-hal\STM32F4xx_HAL_Driver\libfoxbms-stmhal.a(stm32f4xx_hal_tim.c.1.o)
 .text.HAL_TIM_PWM_GetState
                0x00000000       0x1c embedded-software\mcu-hal\STM32F4xx_HAL_Driver\libfoxbms-stmhal.a(stm32f4xx_hal_tim.c.1.o)
 .text.HAL_TIM_IC_GetState
                0x00000000       0x1c embedded-software\mcu-hal\STM32F4xx_HAL_Driver\libfoxbms-stmhal.a(stm32f4xx_hal_tim.c.1.o)
 .text.HAL_TIM_OnePulse_GetState
                0x00000000       0x1c embedded-software\mcu-hal\STM32F4xx_HAL_Driver\libfoxbms-stmhal.a(stm32f4xx_hal_tim.c.1.o)
 .text.HAL_TIM_Encoder_GetState
                0x00000000       0x1c embedded-software\mcu-hal\STM32F4xx_HAL_Driver\libfoxbms-stmhal.a(stm32f4xx_hal_tim.c.1.o)
 .text.TIM_Base_SetConfig
                0x00000000      0x150 embedded-software\mcu-hal\STM32F4xx_HAL_Driver\libfoxbms-stmhal.a(stm32f4xx_hal_tim.c.1.o)
 .text.TIM_TI1_SetConfig
                0x00000000       0xf4 embedded-software\mcu-hal\STM32F4xx_HAL_Driver\libfoxbms-stmhal.a(stm32f4xx_hal_tim.c.1.o)
 .text.TIM_OC2_SetConfig
                0x00000000      0x108 embedded-software\mcu-hal\STM32F4xx_HAL_Driver\libfoxbms-stmhal.a(stm32f4xx_hal_tim.c.1.o)
 .text.TIM_DMADelayPulseCplt
                0x00000000       0x70 embedded-software\mcu-hal\STM32F4xx_HAL_Driver\libfoxbms-stmhal.a(stm32f4xx_hal_tim.c.1.o)
 .text.TIM_DMAError
                0x00000000       0x24 embedded-software\mcu-hal\STM32F4xx_HAL_Driver\libfoxbms-stmhal.a(stm32f4xx_hal_tim.c.1.o)
 .text.TIM_DMACaptureCplt
                0x00000000       0x70 embedded-software\mcu-hal\STM32F4xx_HAL_Driver\libfoxbms-stmhal.a(stm32f4xx_hal_tim.c.1.o)
 .text.TIM_CCxChannelCmd
                0x00000000      0x104 embedded-software\mcu-hal\STM32F4xx_HAL_Driver\libfoxbms-stmhal.a(stm32f4xx_hal_tim.c.1.o)
 .text.TIM_DMAPeriodElapsedCplt
                0x00000000       0x24 embedded-software\mcu-hal\STM32F4xx_HAL_Driver\libfoxbms-stmhal.a(stm32f4xx_hal_tim.c.1.o)
 .text.TIM_DMATriggerCplt
                0x00000000       0x24 embedded-software\mcu-hal\STM32F4xx_HAL_Driver\libfoxbms-stmhal.a(stm32f4xx_hal_tim.c.1.o)
 .text.TIM_OC1_SetConfig
                0x00000000       0xe4 embedded-software\mcu-hal\STM32F4xx_HAL_Driver\libfoxbms-stmhal.a(stm32f4xx_hal_tim.c.1.o)
 .text.TIM_OC3_SetConfig
                0x00000000      0x140 embedded-software\mcu-hal\STM32F4xx_HAL_Driver\libfoxbms-stmhal.a(stm32f4xx_hal_tim.c.1.o)
 .text.TIM_OC4_SetConfig
                0x00000000       0xdc embedded-software\mcu-hal\STM32F4xx_HAL_Driver\libfoxbms-stmhal.a(stm32f4xx_hal_tim.c.1.o)
 .text.TIM_SlaveTimer_SetConfig
                0x00000000      0x5c4 embedded-software\mcu-hal\STM32F4xx_HAL_Driver\libfoxbms-stmhal.a(stm32f4xx_hal_tim.c.1.o)
 .text.TIM_TI1_ConfigInputStage
                0x00000000       0x64 embedded-software\mcu-hal\STM32F4xx_HAL_Driver\libfoxbms-stmhal.a(stm32f4xx_hal_tim.c.1.o)
 .text.TIM_TI2_SetConfig
                0x00000000       0x80 embedded-software\mcu-hal\STM32F4xx_HAL_Driver\libfoxbms-stmhal.a(stm32f4xx_hal_tim.c.1.o)
 .text.TIM_TI2_ConfigInputStage
                0x00000000       0x68 embedded-software\mcu-hal\STM32F4xx_HAL_Driver\libfoxbms-stmhal.a(stm32f4xx_hal_tim.c.1.o)
 .text.TIM_TI3_SetConfig
                0x00000000       0x80 embedded-software\mcu-hal\STM32F4xx_HAL_Driver\libfoxbms-stmhal.a(stm32f4xx_hal_tim.c.1.o)
 .text.TIM_TI4_SetConfig
                0x00000000       0x80 embedded-software\mcu-hal\STM32F4xx_HAL_Driver\libfoxbms-stmhal.a(stm32f4xx_hal_tim.c.1.o)
 .text.TIM_ITRx_SetConfig
                0x00000000       0x40 embedded-software\mcu-hal\STM32F4xx_HAL_Driver\libfoxbms-stmhal.a(stm32f4xx_hal_tim.c.1.o)
 .text.TIM_ETR_SetConfig
                0x00000000       0x44 embedded-software\mcu-hal\STM32F4xx_HAL_Driver\libfoxbms-stmhal.a(stm32f4xx_hal_tim.c.1.o)
 .debug_info    0x00000000     0x2169 embedded-software\mcu-hal\STM32F4xx_HAL_Driver\libfoxbms-stmhal.a(stm32f4xx_hal_tim.c.1.o)
 .debug_abbrev  0x00000000      0x204 embedded-software\mcu-hal\STM32F4xx_HAL_Driver\libfoxbms-stmhal.a(stm32f4xx_hal_tim.c.1.o)
 .debug_aranges
                0x00000000      0x368 embedded-software\mcu-hal\STM32F4xx_HAL_Driver\libfoxbms-stmhal.a(stm32f4xx_hal_tim.c.1.o)
 .debug_ranges  0x00000000      0x358 embedded-software\mcu-hal\STM32F4xx_HAL_Driver\libfoxbms-stmhal.a(stm32f4xx_hal_tim.c.1.o)
 .debug_line    0x00000000     0x390c embedded-software\mcu-hal\STM32F4xx_HAL_Driver\libfoxbms-stmhal.a(stm32f4xx_hal_tim.c.1.o)
 .debug_str     0x00000000     0x13d3 embedded-software\mcu-hal\STM32F4xx_HAL_Driver\libfoxbms-stmhal.a(stm32f4xx_hal_tim.c.1.o)
 .comment       0x00000000       0x71 embedded-software\mcu-hal\STM32F4xx_HAL_Driver\libfoxbms-stmhal.a(stm32f4xx_hal_tim.c.1.o)
 .debug_frame   0x00000000      0xfe8 embedded-software\mcu-hal\STM32F4xx_HAL_Driver\libfoxbms-stmhal.a(stm32f4xx_hal_tim.c.1.o)
 .ARM.attributes
                0x00000000       0x37 embedded-software\mcu-hal\STM32F4xx_HAL_Driver\libfoxbms-stmhal.a(stm32f4xx_hal_tim.c.1.o)
 .data          0x00000000        0x0 c:/foxconda/library/bin/../lib/gcc/arm-none-eabi/4.9.3/armv7e-m/softfp\libgcc.a(_arm_addsubdf3.o)
 .bss           0x00000000        0x0 c:/foxconda/library/bin/../lib/gcc/arm-none-eabi/4.9.3/armv7e-m/softfp\libgcc.a(_arm_addsubdf3.o)
 .data          0x00000000        0x0 c:/foxconda/library/bin/../lib/gcc/arm-none-eabi/4.9.3/armv7e-m/softfp\libgcc.a(_arm_muldivdf3.o)
 .bss           0x00000000        0x0 c:/foxconda/library/bin/../lib/gcc/arm-none-eabi/4.9.3/armv7e-m/softfp\libgcc.a(_arm_muldivdf3.o)
 .data          0x00000000        0x0 c:/foxconda/library/bin/../lib/gcc/arm-none-eabi/4.9.3/armv7e-m/softfp\libgcc.a(_arm_fixunsdfsi.o)
 .bss           0x00000000        0x0 c:/foxconda/library/bin/../lib/gcc/arm-none-eabi/4.9.3/armv7e-m/softfp\libgcc.a(_arm_fixunsdfsi.o)
 .data          0x00000000        0x0 c:/foxconda/library/bin/../lib/gcc/arm-none-eabi/4.9.3/armv7e-m/softfp\libgcc.a(_arm_truncdfsf2.o)
 .bss           0x00000000        0x0 c:/foxconda/library/bin/../lib/gcc/arm-none-eabi/4.9.3/armv7e-m/softfp\libgcc.a(_arm_truncdfsf2.o)
 .text          0x00000000        0x0 c:/foxconda/library/bin/../lib/gcc/arm-none-eabi/4.9.3/../../../../arm-none-eabi/lib/armv7e-m/softfp\libc_nano.a(lib_a-exit.o)
 .data          0x00000000        0x0 c:/foxconda/library/bin/../lib/gcc/arm-none-eabi/4.9.3/../../../../arm-none-eabi/lib/armv7e-m/softfp\libc_nano.a(lib_a-exit.o)
 .bss           0x00000000        0x0 c:/foxconda/library/bin/../lib/gcc/arm-none-eabi/4.9.3/../../../../arm-none-eabi/lib/armv7e-m/softfp\libc_nano.a(lib_a-exit.o)
 .text.exit     0x00000000       0x28 c:/foxconda/library/bin/../lib/gcc/arm-none-eabi/4.9.3/../../../../arm-none-eabi/lib/armv7e-m/softfp\libc_nano.a(lib_a-exit.o)
 .debug_frame   0x00000000       0x28 c:/foxconda/library/bin/../lib/gcc/arm-none-eabi/4.9.3/../../../../arm-none-eabi/lib/armv7e-m/softfp\libc_nano.a(lib_a-exit.o)
 .ARM.attributes
                0x00000000       0x32 c:/foxconda/library/bin/../lib/gcc/arm-none-eabi/4.9.3/../../../../arm-none-eabi/lib/armv7e-m/softfp\libc_nano.a(lib_a-exit.o)
 .text          0x00000000        0x0 c:/foxconda/library/bin/../lib/gcc/arm-none-eabi/4.9.3/../../../../arm-none-eabi/lib/armv7e-m/softfp\libc_nano.a(lib_a-impure.o)
 .data          0x00000000        0x0 c:/foxconda/library/bin/../lib/gcc/arm-none-eabi/4.9.3/../../../../arm-none-eabi/lib/armv7e-m/softfp\libc_nano.a(lib_a-impure.o)
 .bss           0x00000000        0x0 c:/foxconda/library/bin/../lib/gcc/arm-none-eabi/4.9.3/../../../../arm-none-eabi/lib/armv7e-m/softfp\libc_nano.a(lib_a-impure.o)
 .data.impure_data
                0x00000000       0x60 c:/foxconda/library/bin/../lib/gcc/arm-none-eabi/4.9.3/../../../../arm-none-eabi/lib/armv7e-m/softfp\libc_nano.a(lib_a-impure.o)
 .data._impure_ptr
                0x00000000        0x4 c:/foxconda/library/bin/../lib/gcc/arm-none-eabi/4.9.3/../../../../arm-none-eabi/lib/armv7e-m/softfp\libc_nano.a(lib_a-impure.o)
 .rodata.str1.1
                0x00000000        0x2 c:/foxconda/library/bin/../lib/gcc/arm-none-eabi/4.9.3/../../../../arm-none-eabi/lib/armv7e-m/softfp\libc_nano.a(lib_a-impure.o)
 .rodata._global_impure_ptr
                0x00000000        0x4 c:/foxconda/library/bin/../lib/gcc/arm-none-eabi/4.9.3/../../../../arm-none-eabi/lib/armv7e-m/softfp\libc_nano.a(lib_a-impure.o)
 .ARM.attributes
                0x00000000       0x32 c:/foxconda/library/bin/../lib/gcc/arm-none-eabi/4.9.3/../../../../arm-none-eabi/lib/armv7e-m/softfp\libc_nano.a(lib_a-impure.o)
 .text          0x00000000        0x0 c:/foxconda/library/bin/../lib/gcc/arm-none-eabi/4.9.3/../../../../arm-none-eabi/lib/armv7e-m/softfp\libc_nano.a(lib_a-init.o)
 .data          0x00000000        0x0 c:/foxconda/library/bin/../lib/gcc/arm-none-eabi/4.9.3/../../../../arm-none-eabi/lib/armv7e-m/softfp\libc_nano.a(lib_a-init.o)
 .bss           0x00000000        0x0 c:/foxconda/library/bin/../lib/gcc/arm-none-eabi/4.9.3/../../../../arm-none-eabi/lib/armv7e-m/softfp\libc_nano.a(lib_a-init.o)
 .text          0x00000000        0x0 c:/foxconda/library/bin/../lib/gcc/arm-none-eabi/4.9.3/../../../../arm-none-eabi/lib/armv7e-m/softfp\libc_nano.a(lib_a-memcpy.o)
 .data          0x00000000        0x0 c:/foxconda/library/bin/../lib/gcc/arm-none-eabi/4.9.3/../../../../arm-none-eabi/lib/armv7e-m/softfp\libc_nano.a(lib_a-memcpy.o)
 .bss           0x00000000        0x0 c:/foxconda/library/bin/../lib/gcc/arm-none-eabi/4.9.3/../../../../arm-none-eabi/lib/armv7e-m/softfp\libc_nano.a(lib_a-memcpy.o)
 .text          0x00000000        0x0 c:/foxconda/library/bin/../lib/gcc/arm-none-eabi/4.9.3/../../../../arm-none-eabi/lib/armv7e-m/softfp\libc_nano.a(lib_a-memset.o)
 .data          0x00000000        0x0 c:/foxconda/library/bin/../lib/gcc/arm-none-eabi/4.9.3/../../../../arm-none-eabi/lib/armv7e-m/softfp\libc_nano.a(lib_a-memset.o)
 .bss           0x00000000        0x0 c:/foxconda/library/bin/../lib/gcc/arm-none-eabi/4.9.3/../../../../arm-none-eabi/lib/armv7e-m/softfp\libc_nano.a(lib_a-memset.o)
 .text          0x00000000        0x0 c:/foxconda/library/bin/../lib/gcc/arm-none-eabi/4.9.3/../../../../arm-none-eabi/lib/armv7e-m/softfp\libnosys.a(_exit.o)
 .data          0x00000000        0x0 c:/foxconda/library/bin/../lib/gcc/arm-none-eabi/4.9.3/../../../../arm-none-eabi/lib/armv7e-m/softfp\libnosys.a(_exit.o)
 .bss           0x00000000        0x0 c:/foxconda/library/bin/../lib/gcc/arm-none-eabi/4.9.3/../../../../arm-none-eabi/lib/armv7e-m/softfp\libnosys.a(_exit.o)
 .text._exit    0x00000000        0x4 c:/foxconda/library/bin/../lib/gcc/arm-none-eabi/4.9.3/../../../../arm-none-eabi/lib/armv7e-m/softfp\libnosys.a(_exit.o)
 .debug_frame   0x00000000       0x20 c:/foxconda/library/bin/../lib/gcc/arm-none-eabi/4.9.3/../../../../arm-none-eabi/lib/armv7e-m/softfp\libnosys.a(_exit.o)
 .ARM.attributes
                0x00000000       0x32 c:/foxconda/library/bin/../lib/gcc/arm-none-eabi/4.9.3/../../../../arm-none-eabi/lib/armv7e-m/softfp\libnosys.a(_exit.o)
 .text          0x00000000        0x0 c:/foxconda/library/bin/../lib/gcc/arm-none-eabi/4.9.3/armv7e-m/softfp/crtend.o
 .data          0x00000000        0x0 c:/foxconda/library/bin/../lib/gcc/arm-none-eabi/4.9.3/armv7e-m/softfp/crtend.o
 .bss           0x00000000        0x0 c:/foxconda/library/bin/../lib/gcc/arm-none-eabi/4.9.3/armv7e-m/softfp/crtend.o
 .eh_frame      0x00000000        0x4 c:/foxconda/library/bin/../lib/gcc/arm-none-eabi/4.9.3/armv7e-m/softfp/crtend.o
 .jcr           0x00000000        0x4 c:/foxconda/library/bin/../lib/gcc/arm-none-eabi/4.9.3/armv7e-m/softfp/crtend.o
 .ARM.attributes
                0x00000000       0x32 c:/foxconda/library/bin/../lib/gcc/arm-none-eabi/4.9.3/armv7e-m/softfp/crtend.o
 .text          0x00000000        0x0 c:/foxconda/library/bin/../lib/gcc/arm-none-eabi/4.9.3/armv7e-m/softfp/crtn.o
 .data          0x00000000        0x0 c:/foxconda/library/bin/../lib/gcc/arm-none-eabi/4.9.3/armv7e-m/softfp/crtn.o
 .bss           0x00000000        0x0 c:/foxconda/library/bin/../lib/gcc/arm-none-eabi/4.9.3/armv7e-m/softfp/crtn.o

Memory Configuration

Name             Origin             Length             Attributes
FLASH            0x08000000         0x000fff00         xr
FLASH_HEADER     0x080fff00         0x00000100         xr
FLASH_2          0x08100000         0x00100000         xr
RAM              0x20000000         0x00030000         xrw
CCMRAM           0x10000000         0x00010000         rw
BKP_RAM          0x40024000         0x00001000         rw
*default*        0x00000000         0xffffffff

Linker script and memory map

LOAD c:/foxconda/library/bin/../lib/gcc/arm-none-eabi/4.9.3/armv7e-m/softfp/crti.o
LOAD c:/foxconda/library/bin/../lib/gcc/arm-none-eabi/4.9.3/armv7e-m/softfp/crtbegin.o
LOAD c:/foxconda/library/bin/../lib/gcc/arm-none-eabi/4.9.3/../../../../arm-none-eabi/lib/armv7e-m/softfp/crt0.o
LOAD embedded-software\mcu-secondary\src\general\config\nvic_cfg.c.1.o
LOAD embedded-software\mcu-secondary\src\general\config\stm32f4xx_hal_msp.c.1.o
LOAD embedded-software\mcu-secondary\src\general\config\stm32f4xx_it.c.1.o
LOAD embedded-software\mcu-secondary\src\general\config\system_stm32f4xx.c.1.o
LOAD embedded-software\mcu-secondary\src\general\main.c.1.o
LOAD embedded-software\mcu-secondary\src\general\nvic.c.1.o
LOAD embedded-software\mcu-secondary\src\general\version.c.1.o
LOAD embedded-software\mcu-secondary\src\general\config\startup_stm32f429xx.o
LOAD embedded-software\mcu-freertos\libfoxbms-os.a
LOAD embedded-software\mcu-secondary\src\application\libfoxbms-application.a
LOAD embedded-software\mcu-common\src\engine\libfoxbms-common-engine.a
LOAD embedded-software\mcu-secondary\src\engine\libfoxbms-engine.a
LOAD embedded-software\mcu-secondary\src\module\libfoxbms-module.a
LOAD embedded-software\mcu-common\src\module\libfoxbms-common-module.a
LOAD embedded-software\mcu-hal\STM32F4xx_HAL_Driver\libfoxbms-stmhal.a
LOAD c:/foxconda/library/bin/../lib/gcc/arm-none-eabi/4.9.3/../../../../arm-none-eabi/lib/armv7e-m/softfp\libstdc++_nano.a
LOAD c:/foxconda/library/bin/../lib/gcc/arm-none-eabi/4.9.3/../../../../arm-none-eabi/lib/armv7e-m/softfp\libm.a
START GROUP
LOAD c:/foxconda/library/bin/../lib/gcc/arm-none-eabi/4.9.3/armv7e-m/softfp\libgcc.a
LOAD c:/foxconda/library/bin/../lib/gcc/arm-none-eabi/4.9.3/../../../../arm-none-eabi/lib/armv7e-m/softfp\libc_nano.a
END GROUP
START GROUP
LOAD c:/foxconda/library/bin/../lib/gcc/arm-none-eabi/4.9.3/armv7e-m/softfp\libgcc.a
LOAD c:/foxconda/library/bin/../lib/gcc/arm-none-eabi/4.9.3/../../../../arm-none-eabi/lib/armv7e-m/softfp\libc_nano.a
LOAD c:/foxconda/library/bin/../lib/gcc/arm-none-eabi/4.9.3/../../../../arm-none-eabi/lib/armv7e-m/softfp\libnosys.a
END GROUP
START GROUP
LOAD c:/foxconda/library/bin/../lib/gcc/arm-none-eabi/4.9.3/armv7e-m/softfp\libgcc.a
LOAD c:/foxconda/library/bin/../lib/gcc/arm-none-eabi/4.9.3/../../../../arm-none-eabi/lib/armv7e-m/softfp\libc_nano.a
LOAD c:/foxconda/library/bin/../lib/gcc/arm-none-eabi/4.9.3/../../../../arm-none-eabi/lib/armv7e-m/softfp\libnosys.a
END GROUP
LOAD c:/foxconda/library/bin/../lib/gcc/arm-none-eabi/4.9.3/armv7e-m/softfp/crtend.o
LOAD c:/foxconda/library/bin/../lib/gcc/arm-none-eabi/4.9.3/armv7e-m/softfp/crtn.o
                0x2002ffff                _estack = 0x2002ffff
                0x00000200                _Min_Heap_Size = 0x200
                0x00000400                _Min_Stack_Size = 0x400

.flashheader    0x080fff00      0x100
                0x080fff00                . = ALIGN (0x4)
 *(.FLASH_HEADERSection*)
 .FLASH_HEADERSection
                0x080fff00      0x100 embedded-software\mcu-secondary\src\general\version.c.1.o
                0x080fff00                ver_sw_validation
                0x08100000                . = ALIGN (0x4)

.isr_vector     0x08000000      0x1b0
                0x08000000                . = ALIGN (0x4)
 *(.isr_vector)
 .isr_vector    0x08000000      0x1ac embedded-software\mcu-secondary\src\general\config\startup_stm32f429xx.o
                0x08000000                g_pfnVectors
                0x080001b0                . = ALIGN (0x10)
 *fill*         0x080001ac        0x4 ff
                0x08100000                _foxBMS_FLASH_end = ((ORIGIN (FLASH) + 0xfff00) + 0x100)
                0x08200000                _foxBMS_FLASH_2_end = (ORIGIN (FLASH_2) + 0x100000)
                0x08000000                _sflash1 = ORIGIN (FLASH)
                0x08000004                _jumpadressvectable = (ORIGIN (FLASH) + 0x4)

.text           0x080001b0    0x124c0
                0x080001b0                . = ALIGN (0x10)
 *arm-none-eabi*(.text*)
 .text          0x080001b0       0x5c c:/foxconda/library/bin/../lib/gcc/arm-none-eabi/4.9.3/armv7e-m/softfp/crtbegin.o
 *libgcc.a:(.text*)
 .text          0x0800020c      0x370 c:/foxconda/library/bin/../lib/gcc/arm-none-eabi/4.9.3/armv7e-m/softfp\libgcc.a(_arm_addsubdf3.o)
                0x0800020c                __aeabi_drsub
                0x08000214                __aeabi_dsub
                0x08000214                __subdf3
                0x08000218                __aeabi_dadd
                0x08000218                __adddf3
                0x08000490                __floatunsidf
                0x08000490                __aeabi_ui2d
                0x080004b0                __floatsidf
                0x080004b0                __aeabi_i2d
                0x080004d4                __aeabi_f2d
                0x080004d4                __extendsfdf2
                0x08000510                __floatundidf
                0x08000510                __aeabi_ul2d
                0x08000520                __floatdidf
                0x08000520                __aeabi_l2d
 .text          0x0800057c      0x424 c:/foxconda/library/bin/../lib/gcc/arm-none-eabi/4.9.3/armv7e-m/softfp\libgcc.a(_arm_muldivdf3.o)
                0x0800057c                __aeabi_dmul
                0x0800057c                __muldf3
                0x080007d0                __divdf3
                0x080007d0                __aeabi_ddiv
 .text          0x080009a0       0x40 c:/foxconda/library/bin/../lib/gcc/arm-none-eabi/4.9.3/armv7e-m/softfp\libgcc.a(_arm_fixunsdfsi.o)
                0x080009a0                __aeabi_d2uiz
                0x080009a0                __fixunsdfsi
 .text          0x080009e0       0xa0 c:/foxconda/library/bin/../lib/gcc/arm-none-eabi/4.9.3/armv7e-m/softfp\libgcc.a(_arm_truncdfsf2.o)
                0x080009e0                __truncdfsf2
                0x080009e0                __aeabi_d2f
 *libc*.a:(.text*)
 .text.__libc_init_array
                0x08000a80       0x4c c:/foxconda/library/bin/../lib/gcc/arm-none-eabi/4.9.3/../../../../arm-none-eabi/lib/armv7e-m/softfp\libc_nano.a(lib_a-init.o)
                0x08000a80                __libc_init_array
 .text.memcpy   0x08000acc       0x16 c:/foxconda/library/bin/../lib/gcc/arm-none-eabi/4.9.3/../../../../arm-none-eabi/lib/armv7e-m/softfp\libc_nano.a(lib_a-memcpy.o)
                0x08000acc                memcpy
 .text.memset   0x08000ae2       0x10 c:/foxconda/library/bin/../lib/gcc/arm-none-eabi/4.9.3/../../../../arm-none-eabi/lib/armv7e-m/softfp\libc_nano.a(lib_a-memset.o)
                0x08000ae2                memset
 *libg*.a:(.text*)
 *limc*.a:(.text*)
 *src/hal/*HAL_Driver*(.text*)
 *libHAL.a:(.text*)
 *hal.a:(.text*)
 *fill*         0x08000af2        0x2 ff
 .text.HAL_Init
                0x08000af4       0x44 embedded-software\mcu-hal\STM32F4xx_HAL_Driver\libfoxbms-stmhal.a(stm32f4xx_hal.c.1.o)
                0x08000af4                HAL_Init
 .text.HAL_InitTick
                0x08000b38       0x38 embedded-software\mcu-hal\STM32F4xx_HAL_Driver\libfoxbms-stmhal.a(stm32f4xx_hal.c.1.o)
                0x08000b38                HAL_InitTick
 .text.HAL_IncTick
                0x08000b70       0x1c embedded-software\mcu-hal\STM32F4xx_HAL_Driver\libfoxbms-stmhal.a(stm32f4xx_hal.c.1.o)
                0x08000b70                HAL_IncTick
 .text.HAL_GetTick
                0x08000b8c       0x18 embedded-software\mcu-hal\STM32F4xx_HAL_Driver\libfoxbms-stmhal.a(stm32f4xx_hal.c.1.o)
                0x08000b8c                HAL_GetTick
 .text.HAL_ADC_Init
                0x08000ba4      0x2d0 embedded-software\mcu-hal\STM32F4xx_HAL_Driver\libfoxbms-stmhal.a(stm32f4xx_hal_adc.c.1.o)
                0x08000ba4                HAL_ADC_Init
 .text.HAL_ADC_MspInit
                0x08000e74       0x14 embedded-software\mcu-hal\STM32F4xx_HAL_Driver\libfoxbms-stmhal.a(stm32f4xx_hal_adc.c.1.o)
                0x08000e74                HAL_ADC_MspInit
 .text.HAL_ADC_Start_IT
                0x08000e88      0x1a4 embedded-software\mcu-hal\STM32F4xx_HAL_Driver\libfoxbms-stmhal.a(stm32f4xx_hal_adc.c.1.o)
                0x08000e88                HAL_ADC_Start_IT
 .text.HAL_ADC_Stop_IT
                0x0800102c       0xb0 embedded-software\mcu-hal\STM32F4xx_HAL_Driver\libfoxbms-stmhal.a(stm32f4xx_hal_adc.c.1.o)
                0x0800102c                HAL_ADC_Stop_IT
 .text.HAL_ADC_IRQHandler
                0x080010dc      0x2dc embedded-software\mcu-hal\STM32F4xx_HAL_Driver\libfoxbms-stmhal.a(stm32f4xx_hal_adc.c.1.o)
                0x080010dc                HAL_ADC_IRQHandler
 .text.HAL_ADC_GetValue
                0x080013b8       0x1c embedded-software\mcu-hal\STM32F4xx_HAL_Driver\libfoxbms-stmhal.a(stm32f4xx_hal_adc.c.1.o)
                0x080013b8                HAL_ADC_GetValue
 .text.HAL_ADC_LevelOutOfWindowCallback
                0x080013d4       0x14 embedded-software\mcu-hal\STM32F4xx_HAL_Driver\libfoxbms-stmhal.a(stm32f4xx_hal_adc.c.1.o)
                0x080013d4                HAL_ADC_LevelOutOfWindowCallback
 .text.HAL_ADC_ErrorCallback
                0x080013e8       0x14 embedded-software\mcu-hal\STM32F4xx_HAL_Driver\libfoxbms-stmhal.a(stm32f4xx_hal_adc.c.1.o)
                0x080013e8                HAL_ADC_ErrorCallback
 .text.HAL_ADC_ConfigChannel
                0x080013fc      0x2d0 embedded-software\mcu-hal\STM32F4xx_HAL_Driver\libfoxbms-stmhal.a(stm32f4xx_hal_adc.c.1.o)
                0x080013fc                HAL_ADC_ConfigChannel
 .text.ADC_Init
                0x080016cc      0x21c embedded-software\mcu-hal\STM32F4xx_HAL_Driver\libfoxbms-stmhal.a(stm32f4xx_hal_adc.c.1.o)
 .text.HAL_ADCEx_InjectedConvCpltCallback
                0x080018e8       0x14 embedded-software\mcu-hal\STM32F4xx_HAL_Driver\libfoxbms-stmhal.a(stm32f4xx_hal_adc_ex.c.1.o)
                0x080018e8                HAL_ADCEx_InjectedConvCpltCallback
 .text.HAL_CAN_Init
                0x080018fc      0x3a8 embedded-software\mcu-hal\STM32F4xx_HAL_Driver\libfoxbms-stmhal.a(stm32f4xx_hal_can.c.1.o)
                0x080018fc                HAL_CAN_Init
 .text.HAL_CAN_ConfigFilter
                0x08001ca4      0x224 embedded-software\mcu-hal\STM32F4xx_HAL_Driver\libfoxbms-stmhal.a(stm32f4xx_hal_can.c.1.o)
                0x08001ca4                HAL_CAN_ConfigFilter
 .text.HAL_CAN_DeInit
                0x08001ec8       0x64 embedded-software\mcu-hal\STM32F4xx_HAL_Driver\libfoxbms-stmhal.a(stm32f4xx_hal_can.c.1.o)
                0x08001ec8                HAL_CAN_DeInit
 .text.HAL_CAN_Transmit_IT
                0x08001f2c      0x308 embedded-software\mcu-hal\STM32F4xx_HAL_Driver\libfoxbms-stmhal.a(stm32f4xx_hal_can.c.1.o)
                0x08001f2c                HAL_CAN_Transmit_IT
 .text.HAL_CAN_Receive_IT
                0x08002234      0x10c embedded-software\mcu-hal\STM32F4xx_HAL_Driver\libfoxbms-stmhal.a(stm32f4xx_hal_can.c.1.o)
                0x08002234                HAL_CAN_Receive_IT
 .text.NVIC_SetPriorityGrouping
                0x08002340       0x48 embedded-software\mcu-hal\STM32F4xx_HAL_Driver\libfoxbms-stmhal.a(stm32f4xx_hal_cortex.c.1.o)
 .text.NVIC_GetPriorityGrouping
                0x08002388       0x1c embedded-software\mcu-hal\STM32F4xx_HAL_Driver\libfoxbms-stmhal.a(stm32f4xx_hal_cortex.c.1.o)
 .text.NVIC_EnableIRQ
                0x080023a4       0x30 embedded-software\mcu-hal\STM32F4xx_HAL_Driver\libfoxbms-stmhal.a(stm32f4xx_hal_cortex.c.1.o)
 .text.NVIC_ClearPendingIRQ
                0x080023d4       0x34 embedded-software\mcu-hal\STM32F4xx_HAL_Driver\libfoxbms-stmhal.a(stm32f4xx_hal_cortex.c.1.o)
 .text.NVIC_SetPriority
                0x08002408       0x54 embedded-software\mcu-hal\STM32F4xx_HAL_Driver\libfoxbms-stmhal.a(stm32f4xx_hal_cortex.c.1.o)
 .text.NVIC_EncodePriority
                0x0800245c       0x64 embedded-software\mcu-hal\STM32F4xx_HAL_Driver\libfoxbms-stmhal.a(stm32f4xx_hal_cortex.c.1.o)
 .text.NVIC_SystemReset
                0x080024c0       0x28 embedded-software\mcu-hal\STM32F4xx_HAL_Driver\libfoxbms-stmhal.a(stm32f4xx_hal_cortex.c.1.o)
 .text.SysTick_Config
                0x080024e8       0x44 embedded-software\mcu-hal\STM32F4xx_HAL_Driver\libfoxbms-stmhal.a(stm32f4xx_hal_cortex.c.1.o)
 .text.HAL_NVIC_SetPriorityGrouping
                0x0800252c       0x40 embedded-software\mcu-hal\STM32F4xx_HAL_Driver\libfoxbms-stmhal.a(stm32f4xx_hal_cortex.c.1.o)
                0x0800252c                HAL_NVIC_SetPriorityGrouping
 .text.HAL_NVIC_SetPriority
                0x0800256c       0x58 embedded-software\mcu-hal\STM32F4xx_HAL_Driver\libfoxbms-stmhal.a(stm32f4xx_hal_cortex.c.1.o)
                0x0800256c                HAL_NVIC_SetPriority
 .text.HAL_NVIC_EnableIRQ
                0x080025c4       0x30 embedded-software\mcu-hal\STM32F4xx_HAL_Driver\libfoxbms-stmhal.a(stm32f4xx_hal_cortex.c.1.o)
                0x080025c4                HAL_NVIC_EnableIRQ
 .text.HAL_NVIC_SystemReset
                0x080025f4        0xc embedded-software\mcu-hal\STM32F4xx_HAL_Driver\libfoxbms-stmhal.a(stm32f4xx_hal_cortex.c.1.o)
                0x080025f4                HAL_NVIC_SystemReset
 .text.HAL_SYSTICK_Config
                0x08002600       0x18 embedded-software\mcu-hal\STM32F4xx_HAL_Driver\libfoxbms-stmhal.a(stm32f4xx_hal_cortex.c.1.o)
                0x08002600                HAL_SYSTICK_Config
 .text.HAL_NVIC_ClearPendingIRQ
                0x08002618       0x30 embedded-software\mcu-hal\STM32F4xx_HAL_Driver\libfoxbms-stmhal.a(stm32f4xx_hal_cortex.c.1.o)
                0x08002618                HAL_NVIC_ClearPendingIRQ
 .text.HAL_DMA_Init
                0x08002648      0x434 embedded-software\mcu-hal\STM32F4xx_HAL_Driver\libfoxbms-stmhal.a(stm32f4xx_hal_dma.c.1.o)
                0x08002648                HAL_DMA_Init
 .text.HAL_DMA_Start_IT
                0x08002a7c       0xe0 embedded-software\mcu-hal\STM32F4xx_HAL_Driver\libfoxbms-stmhal.a(stm32f4xx_hal_dma.c.1.o)
                0x08002a7c                HAL_DMA_Start_IT
 .text.HAL_DMA_Abort_IT
                0x08002b5c       0x44 embedded-software\mcu-hal\STM32F4xx_HAL_Driver\libfoxbms-stmhal.a(stm32f4xx_hal_dma.c.1.o)
                0x08002b5c                HAL_DMA_Abort_IT
 .text.HAL_DMA_IRQHandler
                0x08002ba0      0x344 embedded-software\mcu-hal\STM32F4xx_HAL_Driver\libfoxbms-stmhal.a(stm32f4xx_hal_dma.c.1.o)
                0x08002ba0                HAL_DMA_IRQHandler
 .text.DMA_SetConfig
                0x08002ee4       0x5c embedded-software\mcu-hal\STM32F4xx_HAL_Driver\libfoxbms-stmhal.a(stm32f4xx_hal_dma.c.1.o)
 .text.DMA_CalcBaseAndBitshift
                0x08002f40       0x6c embedded-software\mcu-hal\STM32F4xx_HAL_Driver\libfoxbms-stmhal.a(stm32f4xx_hal_dma.c.1.o)
 .text.DMA_CheckFifoParam
                0x08002fac      0x108 embedded-software\mcu-hal\STM32F4xx_HAL_Driver\libfoxbms-stmhal.a(stm32f4xx_hal_dma.c.1.o)
 .text.HAL_GPIO_Init
                0x080030b4      0x640 embedded-software\mcu-hal\STM32F4xx_HAL_Driver\libfoxbms-stmhal.a(stm32f4xx_hal_gpio.c.1.o)
                0x080030b4                HAL_GPIO_Init
 .text.HAL_GPIO_ReadPin
                0x080036f4       0x40 embedded-software\mcu-hal\STM32F4xx_HAL_Driver\libfoxbms-stmhal.a(stm32f4xx_hal_gpio.c.1.o)
                0x080036f4                HAL_GPIO_ReadPin
 .text.HAL_GPIO_WritePin
                0x08003734       0x58 embedded-software\mcu-hal\STM32F4xx_HAL_Driver\libfoxbms-stmhal.a(stm32f4xx_hal_gpio.c.1.o)
                0x08003734                HAL_GPIO_WritePin
 .text.HAL_GPIO_TogglePin
                0x0800378c       0x34 embedded-software\mcu-hal\STM32F4xx_HAL_Driver\libfoxbms-stmhal.a(stm32f4xx_hal_gpio.c.1.o)
                0x0800378c                HAL_GPIO_TogglePin
 .text.HAL_IWDG_Init
                0x080037c0       0xe0 embedded-software\mcu-hal\STM32F4xx_HAL_Driver\libfoxbms-stmhal.a(stm32f4xx_hal_iwdg.c.1.o)
                0x080037c0                HAL_IWDG_Init
 .text.HAL_IWDG_Refresh
                0x080038a0       0x20 embedded-software\mcu-hal\STM32F4xx_HAL_Driver\libfoxbms-stmhal.a(stm32f4xx_hal_iwdg.c.1.o)
                0x080038a0                HAL_IWDG_Refresh
 .text.HAL_PWR_EnableBkUpAccess
                0x080038c0       0x34 embedded-software\mcu-hal\STM32F4xx_HAL_Driver\libfoxbms-stmhal.a(stm32f4xx_hal_pwr.c.1.o)
                0x080038c0                HAL_PWR_EnableBkUpAccess
 .text.HAL_PWREx_EnableBkUpReg
                0x080038f4       0x68 embedded-software\mcu-hal\STM32F4xx_HAL_Driver\libfoxbms-stmhal.a(stm32f4xx_hal_pwr_ex.c.1.o)
                0x080038f4                HAL_PWREx_EnableBkUpReg
 .text.HAL_RCC_OscConfig
                0x0800395c      0x584 embedded-software\mcu-hal\STM32F4xx_HAL_Driver\libfoxbms-stmhal.a(stm32f4xx_hal_rcc.c.1.o)
                0x0800395c                HAL_RCC_OscConfig
 .text.HAL_RCC_ClockConfig
                0x08003ee0      0x3ac embedded-software\mcu-hal\STM32F4xx_HAL_Driver\libfoxbms-stmhal.a(stm32f4xx_hal_rcc.c.1.o)
                0x08003ee0                HAL_RCC_ClockConfig
 .text.HAL_RCC_GetSysClockFreq
                0x0800428c       0xfc embedded-software\mcu-hal\STM32F4xx_HAL_Driver\libfoxbms-stmhal.a(stm32f4xx_hal_rcc.c.1.o)
                0x0800428c                HAL_RCC_GetSysClockFreq
 .text.HAL_RCC_GetHCLKFreq
                0x08004388       0x18 embedded-software\mcu-hal\STM32F4xx_HAL_Driver\libfoxbms-stmhal.a(stm32f4xx_hal_rcc.c.1.o)
                0x08004388                HAL_RCC_GetHCLKFreq
 .text.HAL_RCC_GetPCLK1Freq
                0x080043a0       0x44 embedded-software\mcu-hal\STM32F4xx_HAL_Driver\libfoxbms-stmhal.a(stm32f4xx_hal_rcc.c.1.o)
                0x080043a0                HAL_RCC_GetPCLK1Freq
 .text.HAL_RCC_GetPCLK2Freq
                0x080043e4       0x44 embedded-software\mcu-hal\STM32F4xx_HAL_Driver\libfoxbms-stmhal.a(stm32f4xx_hal_rcc.c.1.o)
                0x080043e4                HAL_RCC_GetPCLK2Freq
 .text.HAL_RCCEx_PeriphCLKConfig
                0x08004428      0x740 embedded-software\mcu-hal\STM32F4xx_HAL_Driver\libfoxbms-stmhal.a(stm32f4xx_hal_rcc_ex.c.1.o)
                0x08004428                HAL_RCCEx_PeriphCLKConfig
 .text.HAL_RTC_Init
                0x08004b68      0x198 embedded-software\mcu-hal\STM32F4xx_HAL_Driver\libfoxbms-stmhal.a(stm32f4xx_hal_rtc.c.1.o)
                0x08004b68                HAL_RTC_Init
 .text.HAL_RTC_MspInit
                0x08004d00       0x14 embedded-software\mcu-hal\STM32F4xx_HAL_Driver\libfoxbms-stmhal.a(stm32f4xx_hal_rtc.c.1.o)
                0x08004d00                HAL_RTC_MspInit
 .text.HAL_RTC_SetTime
                0x08004d14      0x2d4 embedded-software\mcu-hal\STM32F4xx_HAL_Driver\libfoxbms-stmhal.a(stm32f4xx_hal_rtc.c.1.o)
                0x08004d14                HAL_RTC_SetTime
 .text.HAL_RTC_GetTime
                0x08004fe8       0xd0 embedded-software\mcu-hal\STM32F4xx_HAL_Driver\libfoxbms-stmhal.a(stm32f4xx_hal_rtc.c.1.o)
                0x08004fe8                HAL_RTC_GetTime
 .text.HAL_RTC_SetDate
                0x080050b8      0x254 embedded-software\mcu-hal\STM32F4xx_HAL_Driver\libfoxbms-stmhal.a(stm32f4xx_hal_rtc.c.1.o)
                0x080050b8                HAL_RTC_SetDate
 .text.HAL_RTC_GetDate
                0x0800530c       0xb8 embedded-software\mcu-hal\STM32F4xx_HAL_Driver\libfoxbms-stmhal.a(stm32f4xx_hal_rtc.c.1.o)
                0x0800530c                HAL_RTC_GetDate
 .text.HAL_RTC_WaitForSynchro
                0x080053c4       0x50 embedded-software\mcu-hal\STM32F4xx_HAL_Driver\libfoxbms-stmhal.a(stm32f4xx_hal_rtc.c.1.o)
                0x080053c4                HAL_RTC_WaitForSynchro
 .text.RTC_EnterInitMode
                0x08005414       0x58 embedded-software\mcu-hal\STM32F4xx_HAL_Driver\libfoxbms-stmhal.a(stm32f4xx_hal_rtc.c.1.o)
                0x08005414                RTC_EnterInitMode
 .text.RTC_ByteToBcd2
                0x0800546c       0x3c embedded-software\mcu-hal\STM32F4xx_HAL_Driver\libfoxbms-stmhal.a(stm32f4xx_hal_rtc.c.1.o)
                0x0800546c                RTC_ByteToBcd2
 .text.RTC_Bcd2ToByte
                0x080054a8       0x3c embedded-software\mcu-hal\STM32F4xx_HAL_Driver\libfoxbms-stmhal.a(stm32f4xx_hal_rtc.c.1.o)
                0x080054a8                RTC_Bcd2ToByte
 .text.HAL_RTCEx_DeactivateWakeUpTimer
                0x080054e4       0xb0 embedded-software\mcu-hal\STM32F4xx_HAL_Driver\libfoxbms-stmhal.a(stm32f4xx_hal_rtc_ex.c.1.o)
                0x080054e4                HAL_RTCEx_DeactivateWakeUpTimer
 .text.HAL_SPI_Init
                0x08005594      0x268 embedded-software\mcu-hal\STM32F4xx_HAL_Driver\libfoxbms-stmhal.a(stm32f4xx_hal_spi.c.1.o)
                0x08005594                HAL_SPI_Init
 .text.HAL_SPI_Transmit_DMA
                0x080057fc      0x160 embedded-software\mcu-hal\STM32F4xx_HAL_Driver\libfoxbms-stmhal.a(stm32f4xx_hal_spi.c.1.o)
                0x080057fc                HAL_SPI_Transmit_DMA
 .text.HAL_SPI_TransmitReceive_DMA
                0x0800595c      0x1ec embedded-software\mcu-hal\STM32F4xx_HAL_Driver\libfoxbms-stmhal.a(stm32f4xx_hal_spi.c.1.o)
                0x0800595c                HAL_SPI_TransmitReceive_DMA
 .text.HAL_SPI_IRQHandler
                0x08005b48      0x1b0 embedded-software\mcu-hal\STM32F4xx_HAL_Driver\libfoxbms-stmhal.a(stm32f4xx_hal_spi.c.1.o)
                0x08005b48                HAL_SPI_IRQHandler
 .text.HAL_SPI_RxCpltCallback
                0x08005cf8       0x14 embedded-software\mcu-hal\STM32F4xx_HAL_Driver\libfoxbms-stmhal.a(stm32f4xx_hal_spi.c.1.o)
                0x08005cf8                HAL_SPI_RxCpltCallback
 .text.HAL_SPI_TxHalfCpltCallback
                0x08005d0c       0x14 embedded-software\mcu-hal\STM32F4xx_HAL_Driver\libfoxbms-stmhal.a(stm32f4xx_hal_spi.c.1.o)
                0x08005d0c                HAL_SPI_TxHalfCpltCallback
 .text.HAL_SPI_RxHalfCpltCallback
                0x08005d20       0x14 embedded-software\mcu-hal\STM32F4xx_HAL_Driver\libfoxbms-stmhal.a(stm32f4xx_hal_spi.c.1.o)
                0x08005d20                HAL_SPI_RxHalfCpltCallback
 .text.HAL_SPI_TxRxHalfCpltCallback
                0x08005d34       0x14 embedded-software\mcu-hal\STM32F4xx_HAL_Driver\libfoxbms-stmhal.a(stm32f4xx_hal_spi.c.1.o)
                0x08005d34                HAL_SPI_TxRxHalfCpltCallback
 .text.HAL_SPI_ErrorCallback
                0x08005d48       0x14 embedded-software\mcu-hal\STM32F4xx_HAL_Driver\libfoxbms-stmhal.a(stm32f4xx_hal_spi.c.1.o)
                0x08005d48                HAL_SPI_ErrorCallback
 .text.SPI_DMATransmitCplt
                0x08005d5c       0x9c embedded-software\mcu-hal\STM32F4xx_HAL_Driver\libfoxbms-stmhal.a(stm32f4xx_hal_spi.c.1.o)
 .text.SPI_DMAReceiveCplt
                0x08005df8       0x84 embedded-software\mcu-hal\STM32F4xx_HAL_Driver\libfoxbms-stmhal.a(stm32f4xx_hal_spi.c.1.o)
 .text.SPI_DMATransmitReceiveCplt
                0x08005e7c       0x84 embedded-software\mcu-hal\STM32F4xx_HAL_Driver\libfoxbms-stmhal.a(stm32f4xx_hal_spi.c.1.o)
 .text.SPI_DMAHalfTransmitCplt
                0x08005f00       0x1c embedded-software\mcu-hal\STM32F4xx_HAL_Driver\libfoxbms-stmhal.a(stm32f4xx_hal_spi.c.1.o)
 .text.SPI_DMAHalfReceiveCplt
                0x08005f1c       0x1c embedded-software\mcu-hal\STM32F4xx_HAL_Driver\libfoxbms-stmhal.a(stm32f4xx_hal_spi.c.1.o)
 .text.SPI_DMAHalfTransmitReceiveCplt
                0x08005f38       0x1c embedded-software\mcu-hal\STM32F4xx_HAL_Driver\libfoxbms-stmhal.a(stm32f4xx_hal_spi.c.1.o)
 .text.SPI_DMAError
                0x08005f54       0x40 embedded-software\mcu-hal\STM32F4xx_HAL_Driver\libfoxbms-stmhal.a(stm32f4xx_hal_spi.c.1.o)
 .text.SPI_DMAAbortOnError
                0x08005f94       0x28 embedded-software\mcu-hal\STM32F4xx_HAL_Driver\libfoxbms-stmhal.a(stm32f4xx_hal_spi.c.1.o)
 .text.SPI_WaitFlagStateUntilTimeout
                0x08005fbc       0xd4 embedded-software\mcu-hal\STM32F4xx_HAL_Driver\libfoxbms-stmhal.a(stm32f4xx_hal_spi.c.1.o)
 .text.SPI_CheckFlag_BSY
                0x08006090       0x3c embedded-software\mcu-hal\STM32F4xx_HAL_Driver\libfoxbms-stmhal.a(stm32f4xx_hal_spi.c.1.o)
 *src/hal/CMSIS*(.text*)
 *CMSIS.a:(.text*)
 */os/*(.text*)
 *libOS.a:(.text*)
 *os.a:(.text*)
 .text.makeFreeRtosPriority
                0x080060cc       0x30 embedded-software\mcu-freertos\libfoxbms-os.a(cmsis_os.c.1.o)
 .text.inHandlerMode
                0x080060fc       0x24 embedded-software\mcu-freertos\libfoxbms-os.a(cmsis_os.c.1.o)
 .text.osKernelStart
                0x08006120       0x10 embedded-software\mcu-freertos\libfoxbms-os.a(cmsis_os.c.1.o)
                0x08006120                osKernelStart
 .text.osKernelSysTick
                0x08006130       0x20 embedded-software\mcu-freertos\libfoxbms-os.a(cmsis_os.c.1.o)
                0x08006130                osKernelSysTick
 .text.osThreadCreate
                0x08006150       0x50 embedded-software\mcu-freertos\libfoxbms-os.a(cmsis_os.c.1.o)
                0x08006150                osThreadCreate
 .text.osSystickHandler
                0x080061a0       0x14 embedded-software\mcu-freertos\libfoxbms-os.a(cmsis_os.c.1.o)
                0x080061a0                osSystickHandler
 .text.osDelayUntil
                0x080061b4       0x2c embedded-software\mcu-freertos\libfoxbms-os.a(cmsis_os.c.1.o)
                0x080061b4                osDelayUntil
 .text.vPortCheckCriticalSection
                0x080061e0       0x20 embedded-software\mcu-freertos\libfoxbms-os.a(port.c.1.o)
                0x080061e0                vPortCheckCriticalSection
 .text.pxPortInitialiseStack
                0x08006200       0x68 embedded-software\mcu-freertos\libfoxbms-os.a(port.c.1.o)
                0x08006200                pxPortInitialiseStack
 .text.prvTaskExitError
                0x08006268       0x30 embedded-software\mcu-freertos\libfoxbms-os.a(port.c.1.o)
 *fill*         0x08006298        0x8 ff
 .text.SVC_Handler
                0x080062a0       0x24 embedded-software\mcu-freertos\libfoxbms-os.a(port.c.1.o)
                0x080062a0                SVC_Handler
 .text.prvPortStartFirstTask
                0x080062c4       0x20 embedded-software\mcu-freertos\libfoxbms-os.a(port.c.1.o)
 .text.xPortStartScheduler
                0x080062e4       0xfc embedded-software\mcu-freertos\libfoxbms-os.a(port.c.1.o)
                0x080062e4                xPortStartScheduler
 .text.vPortEnterCritical
                0x080063e0       0x48 embedded-software\mcu-freertos\libfoxbms-os.a(port.c.1.o)
                0x080063e0                vPortEnterCritical
 .text.vPortExitCritical
                0x08006428       0x3c embedded-software\mcu-freertos\libfoxbms-os.a(port.c.1.o)
                0x08006428                vPortExitCritical
 *fill*         0x08006464        0xc ff
 .text.PendSV_Handler
                0x08006470       0x64 embedded-software\mcu-freertos\libfoxbms-os.a(port.c.1.o)
                0x08006470                PendSV_Handler
 .text.xPortSysTickHandler
                0x080064d4       0x40 embedded-software\mcu-freertos\libfoxbms-os.a(port.c.1.o)
                0x080064d4                xPortSysTickHandler
 .text.vPortSetupTimerInterrupt
                0x08006514       0x34 embedded-software\mcu-freertos\libfoxbms-os.a(port.c.1.o)
                0x08006514                vPortSetupTimerInterrupt
 .text.vPortEnableVFP
                0x08006548       0x14 embedded-software\mcu-freertos\libfoxbms-os.a(port.c.1.o)
 .text.vPortValidateInterruptPriority
                0x0800655c       0x58 embedded-software\mcu-freertos\libfoxbms-os.a(port.c.1.o)
                0x0800655c                vPortValidateInterruptPriority
 .text.pvPortMalloc
                0x080065b4      0x158 embedded-software\mcu-freertos\libfoxbms-os.a(heap_4.c.1.o)
                0x080065b4                pvPortMalloc
 .text.vPortFree
                0x0800670c       0x94 embedded-software\mcu-freertos\libfoxbms-os.a(heap_4.c.1.o)
                0x0800670c                vPortFree
 .text.prvHeapInit
                0x080067a0       0xc4 embedded-software\mcu-freertos\libfoxbms-os.a(heap_4.c.1.o)
 .text.prvInsertBlockIntoFreeList
                0x08006864       0xb0 embedded-software\mcu-freertos\libfoxbms-os.a(heap_4.c.1.o)
 .text.xQueueGenericReset
                0x08006914       0xc0 embedded-software\mcu-freertos\libfoxbms-os.a(queue.c.1.o)
                0x08006914                xQueueGenericReset
 .text.xQueueGenericCreate
                0x080069d4       0x64 embedded-software\mcu-freertos\libfoxbms-os.a(queue.c.1.o)
                0x080069d4                xQueueGenericCreate
 .text.prvInitialiseNewQueue
                0x08006a38       0x44 embedded-software\mcu-freertos\libfoxbms-os.a(queue.c.1.o)
 .text.prvInitialiseMutex
                0x08006a7c       0x34 embedded-software\mcu-freertos\libfoxbms-os.a(queue.c.1.o)
 .text.xQueueCreateMutex
                0x08006ab0       0x30 embedded-software\mcu-freertos\libfoxbms-os.a(queue.c.1.o)
                0x08006ab0                xQueueCreateMutex
 .text.xQueueGenericSend
                0x08006ae0      0x1c4 embedded-software\mcu-freertos\libfoxbms-os.a(queue.c.1.o)
                0x08006ae0                xQueueGenericSend
 .text.xQueueGenericSendFromISR
                0x08006ca4      0x100 embedded-software\mcu-freertos\libfoxbms-os.a(queue.c.1.o)
                0x08006ca4                xQueueGenericSendFromISR
 .text.xQueueGenericReceive
                0x08006da4      0x200 embedded-software\mcu-freertos\libfoxbms-os.a(queue.c.1.o)
                0x08006da4                xQueueGenericReceive
 .text.prvCopyDataToQueue
                0x08006fa4       0xd8 embedded-software\mcu-freertos\libfoxbms-os.a(queue.c.1.o)
 .text.prvCopyDataFromQueue
                0x0800707c       0x4c embedded-software\mcu-freertos\libfoxbms-os.a(queue.c.1.o)
 .text.prvUnlockQueue
                0x080070c8       0xa4 embedded-software\mcu-freertos\libfoxbms-os.a(queue.c.1.o)
 .text.prvIsQueueEmpty
                0x0800716c       0x2c embedded-software\mcu-freertos\libfoxbms-os.a(queue.c.1.o)
 .text.prvIsQueueFull
                0x08007198       0x30 embedded-software\mcu-freertos\libfoxbms-os.a(queue.c.1.o)
 .text.vQueueAddToRegistry
                0x080071c8       0x50 embedded-software\mcu-freertos\libfoxbms-os.a(queue.c.1.o)
                0x080071c8                vQueueAddToRegistry
 .text.vQueueWaitForMessageRestricted
                0x08007218       0x6c embedded-software\mcu-freertos\libfoxbms-os.a(queue.c.1.o)
                0x08007218                vQueueWaitForMessageRestricted
 .text.xTaskCreate
                0x08007284       0x84 embedded-software\mcu-freertos\libfoxbms-os.a(tasks.c.1.o)
                0x08007284                xTaskCreate
 .text.prvInitialiseNewTask
                0x08007308       0xfc embedded-software\mcu-freertos\libfoxbms-os.a(tasks.c.1.o)
 .text.prvAddNewTaskToReadyList
                0x08007404       0xe0 embedded-software\mcu-freertos\libfoxbms-os.a(tasks.c.1.o)
 .text.vTaskDelayUntil
                0x080074e4       0xc8 embedded-software\mcu-freertos\libfoxbms-os.a(tasks.c.1.o)
                0x080074e4                vTaskDelayUntil
 .text.vTaskStartScheduler
                0x080075ac       0x88 embedded-software\mcu-freertos\libfoxbms-os.a(tasks.c.1.o)
                0x080075ac                vTaskStartScheduler
 .text.vTaskSuspendAll
                0x08007634       0x1c embedded-software\mcu-freertos\libfoxbms-os.a(tasks.c.1.o)
                0x08007634                vTaskSuspendAll
 .text.xTaskResumeAll
                0x08007650      0x12c embedded-software\mcu-freertos\libfoxbms-os.a(tasks.c.1.o)
                0x08007650                xTaskResumeAll
 .text.xTaskGetTickCount
                0x0800777c       0x20 embedded-software\mcu-freertos\libfoxbms-os.a(tasks.c.1.o)
                0x0800777c                xTaskGetTickCount
 .text.xTaskGetTickCountFromISR
                0x0800779c       0x24 embedded-software\mcu-freertos\libfoxbms-os.a(tasks.c.1.o)
                0x0800779c                xTaskGetTickCountFromISR
 .text.xTaskIncrementTick
                0x080077c0      0x170 embedded-software\mcu-freertos\libfoxbms-os.a(tasks.c.1.o)
                0x080077c0                xTaskIncrementTick
 .text.vTaskSwitchContext
                0x08007930       0xa0 embedded-software\mcu-freertos\libfoxbms-os.a(tasks.c.1.o)
                0x08007930                vTaskSwitchContext
 .text.vTaskPlaceOnEventList
                0x080079d0       0x38 embedded-software\mcu-freertos\libfoxbms-os.a(tasks.c.1.o)
                0x080079d0                vTaskPlaceOnEventList
 .text.vTaskPlaceOnEventListRestricted
                0x08007a08       0x44 embedded-software\mcu-freertos\libfoxbms-os.a(tasks.c.1.o)
                0x08007a08                vTaskPlaceOnEventListRestricted
 .text.xTaskRemoveFromEventList
                0x08007a4c       0xb8 embedded-software\mcu-freertos\libfoxbms-os.a(tasks.c.1.o)
                0x08007a4c                xTaskRemoveFromEventList
 .text.vTaskSetTimeOutState
                0x08007b04       0x34 embedded-software\mcu-freertos\libfoxbms-os.a(tasks.c.1.o)
                0x08007b04                vTaskSetTimeOutState
 .text.xTaskCheckForTimeOut
                0x08007b38       0xa0 embedded-software\mcu-freertos\libfoxbms-os.a(tasks.c.1.o)
                0x08007b38                xTaskCheckForTimeOut
 .text.vTaskMissedYield
                0x08007bd8       0x18 embedded-software\mcu-freertos\libfoxbms-os.a(tasks.c.1.o)
                0x08007bd8                vTaskMissedYield
 .text.prvIdleTask
                0x08007bf0       0x34 embedded-software\mcu-freertos\libfoxbms-os.a(tasks.c.1.o)
 .text.prvInitialiseTaskLists
                0x08007c24       0x7c embedded-software\mcu-freertos\libfoxbms-os.a(tasks.c.1.o)
 .text.prvCheckTasksWaitingTermination
                0x08007ca0       0x74 embedded-software\mcu-freertos\libfoxbms-os.a(tasks.c.1.o)
 .text.prvDeleteTCB
                0x08007d14       0x20 embedded-software\mcu-freertos\libfoxbms-os.a(tasks.c.1.o)
 .text.prvResetNextTaskUnblockTime
                0x08007d34       0x48 embedded-software\mcu-freertos\libfoxbms-os.a(tasks.c.1.o)
 .text.xTaskGetSchedulerState
                0x08007d7c       0x3c embedded-software\mcu-freertos\libfoxbms-os.a(tasks.c.1.o)
                0x08007d7c                xTaskGetSchedulerState
 .text.vTaskPriorityInherit
                0x08007db8       0xf0 embedded-software\mcu-freertos\libfoxbms-os.a(tasks.c.1.o)
                0x08007db8                vTaskPriorityInherit
 .text.xTaskPriorityDisinherit
                0x08007ea8       0xf0 embedded-software\mcu-freertos\libfoxbms-os.a(tasks.c.1.o)
                0x08007ea8                xTaskPriorityDisinherit
 .text.pvTaskIncrementMutexHeldCount
                0x08007f98       0x28 embedded-software\mcu-freertos\libfoxbms-os.a(tasks.c.1.o)
                0x08007f98                pvTaskIncrementMutexHeldCount
 .text.prvAddCurrentTaskToDelayedList
                0x08007fc0       0xc8 embedded-software\mcu-freertos\libfoxbms-os.a(tasks.c.1.o)
 .text.xTimerCreateTimerTask
                0x08008088       0x54 embedded-software\mcu-freertos\libfoxbms-os.a(timers.c.1.o)
                0x08008088                xTimerCreateTimerTask
 .text.xTimerGenericCommand
                0x080080dc       0x98 embedded-software\mcu-freertos\libfoxbms-os.a(timers.c.1.o)
                0x080080dc                xTimerGenericCommand
 .text.prvProcessExpiredTimer
                0x08008174       0x70 embedded-software\mcu-freertos\libfoxbms-os.a(timers.c.1.o)
 .text.prvTimerTask
                0x080081e4       0x24 embedded-software\mcu-freertos\libfoxbms-os.a(timers.c.1.o)
 .text.prvProcessTimerOrBlockTask
                0x08008208       0x9c embedded-software\mcu-freertos\libfoxbms-os.a(timers.c.1.o)
 .text.prvGetNextExpireTime
                0x080082a4       0x48 embedded-software\mcu-freertos\libfoxbms-os.a(timers.c.1.o)
 .text.prvSampleTimeNow
                0x080082ec       0x40 embedded-software\mcu-freertos\libfoxbms-os.a(timers.c.1.o)
 .text.prvInsertTimerInActiveList
                0x0800832c       0x84 embedded-software\mcu-freertos\libfoxbms-os.a(timers.c.1.o)
 .text.prvProcessReceivedCommands
                0x080083b0      0x10c embedded-software\mcu-freertos\libfoxbms-os.a(timers.c.1.o)
 .text.prvSwitchTimerLists
                0x080084bc       0xb0 embedded-software\mcu-freertos\libfoxbms-os.a(timers.c.1.o)
 .text.prvCheckForValidListAndQueue
                0x0800856c       0x6c embedded-software\mcu-freertos\libfoxbms-os.a(timers.c.1.o)
 .text.OS_TaskInit
                0x080085d8       0x50 embedded-software\mcu-freertos\libfoxbms-os.a(os.c.1.o)
                0x080085d8                OS_TaskInit
 .text.vApplicationIdleHook
                0x08008628        0xc embedded-software\mcu-freertos\libfoxbms-os.a(os.c.1.o)
                0x08008628                vApplicationIdleHook
 .text.OS_TSK_Engine
                0x08008634       0x1c embedded-software\mcu-freertos\libfoxbms-os.a(os.c.1.o)
                0x08008634                OS_TSK_Engine
 .text.OS_TSK_Cyclic_1ms
                0x08008650       0x60 embedded-software\mcu-freertos\libfoxbms-os.a(os.c.1.o)
                0x08008650                OS_TSK_Cyclic_1ms
 .text.OS_TSK_Cyclic_10ms
                0x080086b0       0x48 embedded-software\mcu-freertos\libfoxbms-os.a(os.c.1.o)
                0x080086b0                OS_TSK_Cyclic_10ms
 .text.OS_TSK_Cyclic_100ms
                0x080086f8       0x48 embedded-software\mcu-freertos\libfoxbms-os.a(os.c.1.o)
                0x080086f8                OS_TSK_Cyclic_100ms
 .text.OS_TSK_EventHandler
                0x08008740       0x48 embedded-software\mcu-freertos\libfoxbms-os.a(os.c.1.o)
                0x08008740                OS_TSK_EventHandler
 .text.OS_TSK_Diagnosis
                0x08008788       0x48 embedded-software\mcu-freertos\libfoxbms-os.a(os.c.1.o)
                0x08008788                OS_TSK_Diagnosis
 .text.OS_PostOSInit
                0x080087d0       0x40 embedded-software\mcu-freertos\libfoxbms-os.a(os.c.1.o)
                0x080087d0                OS_PostOSInit
 .text.OS_IdleTask
                0x08008810        0xc embedded-software\mcu-freertos\libfoxbms-os.a(os.c.1.o)
                0x08008810                OS_IdleTask
 .text.OS_TimerTrigger
                0x0800881c       0xbc embedded-software\mcu-freertos\libfoxbms-os.a(os.c.1.o)
 .text.OS_TaskEnter_Critical
                0x080088d8       0x38 embedded-software\mcu-freertos\libfoxbms-os.a(os.c.1.o)
                0x080088d8                OS_TaskEnter_Critical
 .text.OS_TaskExit_Critical
                0x08008910       0x2c embedded-software\mcu-freertos\libfoxbms-os.a(os.c.1.o)
                0x08008910                OS_TaskExit_Critical
 .text.vListInitialise
                0x0800893c       0x40 embedded-software\mcu-freertos\libfoxbms-os.a(list.c.1.o)
                0x0800893c                vListInitialise
 .text.vListInitialiseItem
                0x0800897c       0x18 embedded-software\mcu-freertos\libfoxbms-os.a(list.c.1.o)
                0x0800897c                vListInitialiseItem
 .text.vListInsertEnd
                0x08008994       0x48 embedded-software\mcu-freertos\libfoxbms-os.a(list.c.1.o)
                0x08008994                vListInsertEnd
 .text.vListInsert
                0x080089dc       0x70 embedded-software\mcu-freertos\libfoxbms-os.a(list.c.1.o)
                0x080089dc                vListInsert
 .text.uxListRemove
                0x08008a4c       0x54 embedded-software\mcu-freertos\libfoxbms-os.a(list.c.1.o)
                0x08008a4c                uxListRemove
 *src/engine*(.text*)
 *engine*.a:(.text*)
 .text.DATA_StoreDataBlock
                0x08008aa0       0x54 embedded-software\mcu-common\src\engine\libfoxbms-common-engine.a(database.c.1.o)
                0x08008aa0                DATA_StoreDataBlock
 .text.DATA_Task
                0x08008af4      0x1f0 embedded-software\mcu-common\src\engine\libfoxbms-common-engine.a(database.c.1.o)
                0x08008af4                DATA_Task
 .text.DATA_GetTable
                0x08008ce4       0x58 embedded-software\mcu-common\src\engine\libfoxbms-common-engine.a(database.c.1.o)
                0x08008ce4                DATA_GetTable
 .text.DATA_Init
                0x08008d3c       0xd4 embedded-software\mcu-common\src\engine\libfoxbms-common-engine.a(database.c.1.o)
 .text.dummyfu  0x08008e10       0x1c embedded-software\mcu-secondary\src\engine\libfoxbms-engine.a(diag_cfg.c.1.o)
                0x08008e10                dummyfu
 .text.DIAG_error_overvoltage
                0x08008e2c       0x44 embedded-software\mcu-secondary\src\engine\libfoxbms-engine.a(diag_cfg.c.1.o)
                0x08008e2c                DIAG_error_overvoltage
 .text.DIAG_error_undervoltage
                0x08008e70       0x44 embedded-software\mcu-secondary\src\engine\libfoxbms-engine.a(diag_cfg.c.1.o)
                0x08008e70                DIAG_error_undervoltage
 .text.DIAG_error_overtemperaturecharge
                0x08008eb4       0x44 embedded-software\mcu-secondary\src\engine\libfoxbms-engine.a(diag_cfg.c.1.o)
                0x08008eb4                DIAG_error_overtemperaturecharge
 .text.DIAG_error_overtemperaturedischarge
                0x08008ef8       0x44 embedded-software\mcu-secondary\src\engine\libfoxbms-engine.a(diag_cfg.c.1.o)
                0x08008ef8                DIAG_error_overtemperaturedischarge
 .text.DIAG_error_undertemperaturecharge
                0x08008f3c       0x44 embedded-software\mcu-secondary\src\engine\libfoxbms-engine.a(diag_cfg.c.1.o)
                0x08008f3c                DIAG_error_undertemperaturecharge
 .text.DIAG_error_undertemperaturedischarge
                0x08008f80       0x44 embedded-software\mcu-secondary\src\engine\libfoxbms-engine.a(diag_cfg.c.1.o)
                0x08008f80                DIAG_error_undertemperaturedischarge
 .text.DIAG_error_overcurrentcharge
                0x08008fc4       0x44 embedded-software\mcu-secondary\src\engine\libfoxbms-engine.a(diag_cfg.c.1.o)
                0x08008fc4                DIAG_error_overcurrentcharge
 .text.DIAG_error_overcurrentdischarge
                0x08009008       0x44 embedded-software\mcu-secondary\src\engine\libfoxbms-engine.a(diag_cfg.c.1.o)
                0x08009008                DIAG_error_overcurrentdischarge
 .text.DIAG_error_cantiming
                0x0800904c       0x48 embedded-software\mcu-secondary\src\engine\libfoxbms-engine.a(diag_cfg.c.1.o)
                0x0800904c                DIAG_error_cantiming
 .text.DIAG_error_cantiming_cc
                0x08009094       0x48 embedded-software\mcu-secondary\src\engine\libfoxbms-engine.a(diag_cfg.c.1.o)
                0x08009094                DIAG_error_cantiming_cc
 .text.DIAG_error_cancurrentsensor
                0x080090dc       0x44 embedded-software\mcu-secondary\src\engine\libfoxbms-engine.a(diag_cfg.c.1.o)
                0x080090dc                DIAG_error_cancurrentsensor
 .text.DIAG_error_ltcpec
                0x08009120       0x48 embedded-software\mcu-secondary\src\engine\libfoxbms-engine.a(diag_cfg.c.1.o)
                0x08009120                DIAG_error_ltcpec
 .text.DIAG_error_ltcmux
                0x08009168       0x48 embedded-software\mcu-secondary\src\engine\libfoxbms-engine.a(diag_cfg.c.1.o)
                0x08009168                DIAG_error_ltcmux
 .text.DIAG_error_ltcspi
                0x080091b0       0x48 embedded-software\mcu-secondary\src\engine\libfoxbms-engine.a(diag_cfg.c.1.o)
                0x080091b0                DIAG_error_ltcspi
 .text.DIAG_error_contactormainplus
                0x080091f8       0x44 embedded-software\mcu-secondary\src\engine\libfoxbms-engine.a(diag_cfg.c.1.o)
                0x080091f8                DIAG_error_contactormainplus
 .text.DIAG_error_contactormainminus
                0x0800923c       0x44 embedded-software\mcu-secondary\src\engine\libfoxbms-engine.a(diag_cfg.c.1.o)
                0x0800923c                DIAG_error_contactormainminus
 .text.DIAG_error_contactorprecharge
                0x08009280       0x44 embedded-software\mcu-secondary\src\engine\libfoxbms-engine.a(diag_cfg.c.1.o)
                0x08009280                DIAG_error_contactorprecharge
 .text.DIAG_error_contactorchargemainplus
                0x080092c4       0x44 embedded-software\mcu-secondary\src\engine\libfoxbms-engine.a(diag_cfg.c.1.o)
                0x080092c4                DIAG_error_contactorchargemainplus
 .text.DIAG_error_contactorchargemainminus
                0x08009308       0x44 embedded-software\mcu-secondary\src\engine\libfoxbms-engine.a(diag_cfg.c.1.o)
                0x08009308                DIAG_error_contactorchargemainminus
 .text.DIAG_error_contactorchargeprecharge
                0x0800934c       0x44 embedded-software\mcu-secondary\src\engine\libfoxbms-engine.a(diag_cfg.c.1.o)
                0x0800934c                DIAG_error_contactorchargeprecharge
 .text.DIAG_error_interlock
                0x08009390       0x44 embedded-software\mcu-secondary\src\engine\libfoxbms-engine.a(diag_cfg.c.1.o)
                0x08009390                DIAG_error_interlock
 .text.dummyfu2
                0x080093d4       0x14 embedded-software\mcu-secondary\src\engine\libfoxbms-engine.a(diag_cfg.c.1.o)
                0x080093d4                dummyfu2
 .text.ENG_CreateQueues
                0x080093e8       0x1c embedded-software\mcu-secondary\src\engine\libfoxbms-engine.a(enginetask_cfg.c.1.o)
                0x080093e8                ENG_CreateQueues
 .text.ENG_CreateMutex
                0x08009404        0xc embedded-software\mcu-secondary\src\engine\libfoxbms-engine.a(enginetask_cfg.c.1.o)
                0x08009404                ENG_CreateMutex
 .text.ENG_CreateEvent
                0x08009410        0xc embedded-software\mcu-secondary\src\engine\libfoxbms-engine.a(enginetask_cfg.c.1.o)
                0x08009410                ENG_CreateEvent
 .text.ENG_CreateTask
                0x0800941c      0x16c embedded-software\mcu-secondary\src\engine\libfoxbms-engine.a(enginetask_cfg.c.1.o)
                0x0800941c                ENG_CreateTask
 .text.DIAG_Reset
                0x08009588       0xc0 embedded-software\mcu-secondary\src\engine\libfoxbms-engine.a(diag.c.1.o)
 .text.DIAG_Init
                0x08009648      0x220 embedded-software\mcu-secondary\src\engine\libfoxbms-engine.a(diag.c.1.o)
                0x08009648                DIAG_Init
 .text.DIAG_EntryWrite
                0x08009868      0x208 embedded-software\mcu-secondary\src\engine\libfoxbms-engine.a(diag.c.1.o)
 .text.DIAG_Handler
                0x08009a70       0x90 embedded-software\mcu-secondary\src\engine\libfoxbms-engine.a(diag.c.1.o)
                0x08009a70                DIAG_Handler
 .text.DIAG_GeneralHandler
                0x08009b00      0x29c embedded-software\mcu-secondary\src\engine\libfoxbms-engine.a(diag.c.1.o)
 .text.DIAG_SysMon
                0x08009d9c      0x128 embedded-software\mcu-secondary\src\engine\libfoxbms-engine.a(diag.c.1.o)
                0x08009d9c                DIAG_SysMon
 .text.DIAG_SysMonNotify
                0x08009ec4       0x40 embedded-software\mcu-secondary\src\engine\libfoxbms-engine.a(diag.c.1.o)
                0x08009ec4                DIAG_SysMonNotify
 .text.DIAG_configASSERT
                0x08009f04       0x40 embedded-software\mcu-secondary\src\engine\libfoxbms-engine.a(diag.c.1.o)
                0x08009f04                DIAG_configASSERT
 .text.ENG_Init
                0x08009f44       0x98 embedded-software\mcu-secondary\src\engine\libfoxbms-engine.a(enginetask.c.1.o)
                0x08009f44                ENG_Init
 .text.ENG_TSK_Cyclic_1ms
                0x08009fdc       0x18 embedded-software\mcu-secondary\src\engine\libfoxbms-engine.a(enginetask.c.1.o)
                0x08009fdc                ENG_TSK_Cyclic_1ms
 .text.ENG_TSK_Cyclic_10ms
                0x08009ff4       0x10 embedded-software\mcu-secondary\src\engine\libfoxbms-engine.a(enginetask.c.1.o)
                0x08009ff4                ENG_TSK_Cyclic_10ms
 .text.ENG_TSK_Cyclic_100ms
                0x0800a004       0x24 embedded-software\mcu-secondary\src\engine\libfoxbms-engine.a(enginetask.c.1.o)
                0x0800a004                ENG_TSK_Cyclic_100ms
 .text.ENG_TSK_EventHandler
                0x0800a028        0xc embedded-software\mcu-secondary\src\engine\libfoxbms-engine.a(enginetask.c.1.o)
                0x0800a028                ENG_TSK_EventHandler
 .text.ENG_TSK_Diagnosis
                0x0800a034        0xc embedded-software\mcu-secondary\src\engine\libfoxbms-engine.a(enginetask.c.1.o)
                0x0800a034                ENG_TSK_Diagnosis
 .text.SYS_CheckReEntrance
                0x0800a040       0x3c embedded-software\mcu-secondary\src\engine\libfoxbms-engine.a(sys.c.1.o)
 .text.SYS_TransferStateRequest
                0x0800a07c       0x2c embedded-software\mcu-secondary\src\engine\libfoxbms-engine.a(sys.c.1.o)
 .text.SYS_SetStateRequest
                0x0800a0a8       0x3c embedded-software\mcu-secondary\src\engine\libfoxbms-engine.a(sys.c.1.o)
                0x0800a0a8                SYS_SetStateRequest
 .text.SYS_CheckStateRequest
                0x0800a0e4       0x48 embedded-software\mcu-secondary\src\engine\libfoxbms-engine.a(sys.c.1.o)
 .text.SYS_Trigger
                0x0800a12c      0x2b8 embedded-software\mcu-secondary\src\engine\libfoxbms-engine.a(sys.c.1.o)
                0x0800a12c                SYS_Trigger
 *src/general*(.text*)
 *src\\general*(.text*)
 .text.HAL_MspInit
                0x0800a3e4        0xc embedded-software\mcu-secondary\src\general\config\stm32f4xx_hal_msp.c.1.o
                0x0800a3e4                HAL_MspInit
 .text.HAL_CAN_MspInit
                0x0800a3f0       0xb4 embedded-software\mcu-secondary\src\general\config\stm32f4xx_hal_msp.c.1.o
                0x0800a3f0                HAL_CAN_MspInit
 .text.HAL_CAN_MspDeInit
                0x0800a4a4       0x94 embedded-software\mcu-secondary\src\general\config\stm32f4xx_hal_msp.c.1.o
                0x0800a4a4                HAL_CAN_MspDeInit
 .text.HAL_SPI_MspInit
                0x0800a538       0x40 embedded-software\mcu-secondary\src\general\config\stm32f4xx_hal_msp.c.1.o
                0x0800a538                HAL_SPI_MspInit
 .text.assert_failed
                0x0800a578        0xc embedded-software\mcu-secondary\src\general\config\stm32f4xx_hal_msp.c.1.o
                0x0800a578                assert_failed
 .text.NMI_Handler
                0x0800a584        0xc embedded-software\mcu-secondary\src\general\config\stm32f4xx_it.c.1.o
                0x0800a584                NMI_Handler
 .text.HardFault_Handler
                0x0800a590      0x13c embedded-software\mcu-secondary\src\general\config\stm32f4xx_it.c.1.o
                0x0800a590                HardFault_Handler
 .text.MemManage_Handler
                0x0800a6cc        0x8 embedded-software\mcu-secondary\src\general\config\stm32f4xx_it.c.1.o
                0x0800a6cc                MemManage_Handler
 .text.BusFault_Handler
                0x0800a6d4        0x8 embedded-software\mcu-secondary\src\general\config\stm32f4xx_it.c.1.o
                0x0800a6d4                BusFault_Handler
 .text.UsageFault_Handler
                0x0800a6dc        0x8 embedded-software\mcu-secondary\src\general\config\stm32f4xx_it.c.1.o
                0x0800a6dc                UsageFault_Handler
 .text.DebugMon_Handler
                0x0800a6e4        0xc embedded-software\mcu-secondary\src\general\config\stm32f4xx_it.c.1.o
                0x0800a6e4                DebugMon_Handler
 .text.SysTick_Handler
                0x0800a6f0       0x10 embedded-software\mcu-secondary\src\general\config\stm32f4xx_it.c.1.o
                0x0800a6f0                SysTick_Handler
 .text.CAN1_TX_IRQHandler
                0x0800a700       0x10 embedded-software\mcu-secondary\src\general\config\stm32f4xx_it.c.1.o
                0x0800a700                CAN1_TX_IRQHandler
 .text.CAN1_RX0_IRQHandler
                0x0800a710       0x14 embedded-software\mcu-secondary\src\general\config\stm32f4xx_it.c.1.o
                0x0800a710                CAN1_RX0_IRQHandler
 .text.CAN1_RX1_IRQHandler
                0x0800a724       0x14 embedded-software\mcu-secondary\src\general\config\stm32f4xx_it.c.1.o
                0x0800a724                CAN1_RX1_IRQHandler
 .text.CAN1_SCE_IRQHandler
                0x0800a738       0x14 embedded-software\mcu-secondary\src\general\config\stm32f4xx_it.c.1.o
                0x0800a738                CAN1_SCE_IRQHandler
 .text.CAN0_TX_IRQHandler
                0x0800a74c       0x10 embedded-software\mcu-secondary\src\general\config\stm32f4xx_it.c.1.o
                0x0800a74c                CAN0_TX_IRQHandler
 .text.CAN0_RX0_IRQHandler
                0x0800a75c       0x14 embedded-software\mcu-secondary\src\general\config\stm32f4xx_it.c.1.o
                0x0800a75c                CAN0_RX0_IRQHandler
 .text.CAN0_RX1_IRQHandler
                0x0800a770       0x14 embedded-software\mcu-secondary\src\general\config\stm32f4xx_it.c.1.o
                0x0800a770                CAN0_RX1_IRQHandler
 .text.CAN0_SCE_IRQHandler
                0x0800a784       0x14 embedded-software\mcu-secondary\src\general\config\stm32f4xx_it.c.1.o
                0x0800a784                CAN0_SCE_IRQHandler
 .text.SPI6_IRQHandler
                0x0800a798       0x18 embedded-software\mcu-secondary\src\general\config\stm32f4xx_it.c.1.o
                0x0800a798                SPI6_IRQHandler
 .text.SPI2_IRQHandler
                0x0800a7b0       0x18 embedded-software\mcu-secondary\src\general\config\stm32f4xx_it.c.1.o
                0x0800a7b0                SPI2_IRQHandler
 .text.DMA2_Stream0_IRQHandler
                0x0800a7c8       0x18 embedded-software\mcu-secondary\src\general\config\stm32f4xx_it.c.1.o
                0x0800a7c8                DMA2_Stream0_IRQHandler
 .text.DMA2_Stream1_IRQHandler
                0x0800a7e0       0x18 embedded-software\mcu-secondary\src\general\config\stm32f4xx_it.c.1.o
                0x0800a7e0                DMA2_Stream1_IRQHandler
 .text.DMA2_Stream2_IRQHandler
                0x0800a7f8       0x18 embedded-software\mcu-secondary\src\general\config\stm32f4xx_it.c.1.o
                0x0800a7f8                DMA2_Stream2_IRQHandler
 .text.DMA2_Stream3_IRQHandler
                0x0800a810       0x18 embedded-software\mcu-secondary\src\general\config\stm32f4xx_it.c.1.o
                0x0800a810                DMA2_Stream3_IRQHandler
 .text.USART3_IRQHandler
                0x0800a828        0xc embedded-software\mcu-secondary\src\general\config\stm32f4xx_it.c.1.o
                0x0800a828                USART3_IRQHandler
 .text.USART2_IRQHandler
                0x0800a834        0xc embedded-software\mcu-secondary\src\general\config\stm32f4xx_it.c.1.o
                0x0800a834                USART2_IRQHandler
 .text.ADC_IRQHandler
                0x0800a840       0x18 embedded-software\mcu-secondary\src\general\config\stm32f4xx_it.c.1.o
                0x0800a840                ADC_IRQHandler
 .text.TIM3_IRQHandler
                0x0800a858        0xc embedded-software\mcu-secondary\src\general\config\stm32f4xx_it.c.1.o
                0x0800a858                TIM3_IRQHandler
 .text.SystemInit
                0x0800a864       0x74 embedded-software\mcu-secondary\src\general\config\system_stm32f4xx.c.1.o
                0x0800a864                SystemInit
 .text.SystemInit_ExtMemCtl
                0x0800a8d8      0x238 embedded-software\mcu-secondary\src\general\config\system_stm32f4xx.c.1.o
 .text.main     0x0800ab10       0xc0 embedded-software\mcu-secondary\src\general\main.c.1.o
                0x0800ab10                main
 .text.SystemClock_Config
                0x0800abd0        0xc embedded-software\mcu-secondary\src\general\main.c.1.o
                0x0800abd0                SystemClock_Config
 .text.BOOT_Init
                0x0800abdc       0x54 embedded-software\mcu-secondary\src\general\main.c.1.o
                0x0800abdc                BOOT_Init
 .text.NVIC_PreOsInit
                0x0800ac30        0xc embedded-software\mcu-secondary\src\general\nvic.c.1.o
                0x0800ac30                NVIC_PreOsInit
 .text.NVIC_PostOsInit
                0x0800ac3c      0x144 embedded-software\mcu-secondary\src\general\nvic.c.1.o
                0x0800ac3c                NVIC_PostOsInit
 .text.NVIC_InitEXTI
                0x0800ad80        0xc embedded-software\mcu-secondary\src\general\nvic.c.1.o
 .text.Reset_Handler
                0x0800ad8c       0x50 embedded-software\mcu-secondary\src\general\config\startup_stm32f429xx.o
                0x0800ad8c                Reset_Handler
 .text.Default_Handler
                0x0800addc        0x2 embedded-software\mcu-secondary\src\general\config\startup_stm32f429xx.o
                0x0800addc                RTC_Alarm_IRQHandler
                0x0800addc                HASH_RNG_IRQHandler
                0x0800addc                EXTI2_IRQHandler
                0x0800addc                TIM8_CC_IRQHandler
                0x0800addc                UART8_IRQHandler
                0x0800addc                SPI4_IRQHandler
                0x0800addc                TIM1_CC_IRQHandler
                0x0800addc                DMA2_Stream5_IRQHandler
                0x0800addc                DMA1_Stream5_IRQHandler
                0x0800addc                PVD_IRQHandler
                0x0800addc                SDIO_IRQHandler
                0x0800addc                TAMP_STAMP_IRQHandler
                0x0800addc                EXTI3_IRQHandler
                0x0800addc                TIM8_TRG_COM_TIM14_IRQHandler
                0x0800addc                TIM1_UP_TIM10_IRQHandler
                0x0800addc                TIM8_UP_TIM13_IRQHandler
                0x0800addc                I2C3_ER_IRQHandler
                0x0800addc                EXTI0_IRQHandler
                0x0800addc                I2C2_EV_IRQHandler
                0x0800addc                DMA1_Stream2_IRQHandler
                0x0800addc                FPU_IRQHandler
                0x0800addc                OTG_HS_WKUP_IRQHandler
                0x0800addc                LTDC_ER_IRQHandler
                0x0800addc                SPI1_IRQHandler
                0x0800addc                TIM6_DAC_IRQHandler
                0x0800addc                TIM1_BRK_TIM9_IRQHandler
                0x0800addc                DCMI_IRQHandler
                0x0800addc                USART6_IRQHandler
                0x0800addc                UART5_IRQHandler
                0x0800addc                TIM4_IRQHandler
                0x0800addc                I2C1_EV_IRQHandler
                0x0800addc                DMA1_Stream6_IRQHandler
                0x0800addc                DMA1_Stream1_IRQHandler
                0x0800addc                UART4_IRQHandler
                0x0800addc                RCC_IRQHandler
                0x0800addc                TIM8_BRK_TIM12_IRQHandler
                0x0800addc                Default_Handler
                0x0800addc                EXTI15_10_IRQHandler
                0x0800addc                DMA1_Stream7_IRQHandler
                0x0800addc                SPI5_IRQHandler
                0x0800addc                TIM7_IRQHandler
                0x0800addc                TIM5_IRQHandler
                0x0800addc                DMA2_Stream7_IRQHandler
                0x0800addc                I2C3_EV_IRQHandler
                0x0800addc                EXTI9_5_IRQHandler
                0x0800addc                RTC_WKUP_IRQHandler
                0x0800addc                LTDC_IRQHandler
                0x0800addc                ETH_WKUP_IRQHandler
                0x0800addc                OTG_HS_EP1_IN_IRQHandler
                0x0800addc                DMA1_Stream0_IRQHandler
                0x0800addc                EXTI4_IRQHandler
                0x0800addc                ETH_IRQHandler
                0x0800addc                OTG_HS_EP1_OUT_IRQHandler
                0x0800addc                WWDG_IRQHandler
                0x0800addc                TIM2_IRQHandler
                0x0800addc                OTG_FS_WKUP_IRQHandler
                0x0800addc                TIM1_TRG_COM_TIM11_IRQHandler
                0x0800addc                OTG_HS_IRQHandler
                0x0800addc                DMA2D_IRQHandler
                0x0800addc                EXTI1_IRQHandler
                0x0800addc                UART7_IRQHandler
                0x0800addc                I2C2_ER_IRQHandler
                0x0800addc                FLASH_IRQHandler
                0x0800addc                DMA2_Stream4_IRQHandler
                0x0800addc                USART1_IRQHandler
                0x0800addc                OTG_FS_IRQHandler
                0x0800addc                SPI3_IRQHandler
                0x0800addc                DMA1_Stream4_IRQHandler
                0x0800addc                I2C1_ER_IRQHandler
                0x0800addc                FMC_IRQHandler
                0x0800addc                DMA2_Stream6_IRQHandler
                0x0800addc                SAI1_IRQHandler
                0x0800addc                DMA1_Stream3_IRQHandler
 *src/module*(.text*)
 *module.a:(.text*)
 *fill*         0x0800adde        0x2 ff
 .text.ADC_Ctrl
                0x0800ade0       0x5c embedded-software\mcu-secondary\src\module\libfoxbms-module.a(adc_ex.c.1.o)
                0x0800ade0                ADC_Ctrl
 *fill*         0x0800ae3c        0x4 ff
 .text.HAL_ADC_ConvCpltCallback
                0x0800ae40      0x10c embedded-software\mcu-secondary\src\module\libfoxbms-module.a(adc_ex.c.1.o)
                0x0800ae40                HAL_ADC_ConvCpltCallback
 .text.TIM_Init
                0x0800af4c        0xc embedded-software\mcu-secondary\src\module\libfoxbms-module.a(timer.c.1.o)
                0x0800af4c                TIM_Init
 .text.TIM_IRQHandler
                0x0800af58       0x60 embedded-software\mcu-secondary\src\module\libfoxbms-module.a(timer.c.1.o)
                0x0800af58                TIM_IRQHandler
 .text.ADC_Init
                0x0800afb8       0xf4 embedded-software\mcu-common\src\module\libfoxbms-common-module.a(adc.c.1.o)
                0x0800afb8                ADC_Init
 .text.ADC_Convert
                0x0800b0ac       0x14 embedded-software\mcu-common\src\module\libfoxbms-common-module.a(adc.c.1.o)
                0x0800b0ac                ADC_Convert
 .text.CAN_Init
                0x0800b0c0       0x7c embedded-software\mcu-common\src\module\libfoxbms-common-module.a(can.c.1.o)
                0x0800b0c0                CAN_Init
 .text.CAN_InitFilter
                0x0800b13c      0x514 embedded-software\mcu-common\src\module\libfoxbms-common-module.a(can.c.1.o)
 .text.CAN_NumberOfNeededFilters
                0x0800b650      0x2b4 embedded-software\mcu-common\src\module\libfoxbms-common-module.a(can.c.1.o)
 .text.CAN_GetNextID
                0x0800b904      0x1ec embedded-software\mcu-common\src\module\libfoxbms-common-module.a(can.c.1.o)
 .text.CAN_TX_IRQHandler
                0x0800baf0       0x60 embedded-software\mcu-common\src\module\libfoxbms-common-module.a(can.c.1.o)
                0x0800baf0                CAN_TX_IRQHandler
 .text.CAN_RX_IRQHandler
                0x0800bb50       0x68 embedded-software\mcu-common\src\module\libfoxbms-common-module.a(can.c.1.o)
                0x0800bb50                CAN_RX_IRQHandler
 .text.CAN_Error_IRQHandler
                0x0800bbb8      0x2a8 embedded-software\mcu-common\src\module\libfoxbms-common-module.a(can.c.1.o)
                0x0800bbb8                CAN_Error_IRQHandler
 .text.CAN_Disable_Transmit_IT
                0x0800be60       0x64 embedded-software\mcu-common\src\module\libfoxbms-common-module.a(can.c.1.o)
 .text.CAN_TxCpltCallback
                0x0800bec4       0x6c embedded-software\mcu-common\src\module\libfoxbms-common-module.a(can.c.1.o)
 .text.CAN_ErrorCallback
                0x0800bf30       0x14 embedded-software\mcu-common\src\module\libfoxbms-common-module.a(can.c.1.o)
 .text.CAN_TxMsg
                0x0800bf44       0xec embedded-software\mcu-common\src\module\libfoxbms-common-module.a(can.c.1.o)
                0x0800bf44                CAN_TxMsg
 .text.CAN_TxMsgBuffer
                0x0800c030       0xd8 embedded-software\mcu-common\src\module\libfoxbms-common-module.a(can.c.1.o)
                0x0800c030                CAN_TxMsgBuffer
 .text.CAN_RxMsg
                0x0800c108      0x5bc embedded-software\mcu-common\src\module\libfoxbms-common-module.a(can.c.1.o)
 .text.CAN_BufferBypass
                0x0800c6c4      0x1a4 embedded-software\mcu-common\src\module\libfoxbms-common-module.a(can.c.1.o)
 .text.CAN_InterpretReceivedMsg
                0x0800c868       0x28 embedded-software\mcu-common\src\module\libfoxbms-common-module.a(can.c.1.o)
 .text.CHK_Flashchecksum
                0x0800c890       0x4c embedded-software\mcu-common\src\module\libfoxbms-common-module.a(chksum.c.1.o)
                0x0800c890                CHK_Flashchecksum
 .text.CHK_crc32
                0x0800c8dc       0x90 embedded-software\mcu-common\src\module\libfoxbms-common-module.a(chksum.c.1.o)
                0x0800c8dc                CHK_crc32
 .text.DMA_Init
                0x0800c96c      0x248 embedded-software\mcu-common\src\module\libfoxbms-common-module.a(dma.c.1.o)
                0x0800c96c                DMA_Init
 .text.ILCK_GetInterlockSetValue
                0x0800cbb4       0x28 embedded-software\mcu-common\src\module\libfoxbms-common-module.a(interlock.c.1.o)
                0x0800cbb4                ILCK_GetInterlockSetValue
 .text.ILCK_GetInterlockFeedback
                0x0800cbdc       0x54 embedded-software\mcu-common\src\module\libfoxbms-common-module.a(interlock.c.1.o)
                0x0800cbdc                ILCK_GetInterlockFeedback
 .text.ILCK_SetInterlockState
                0x0800cc30       0x58 embedded-software\mcu-common\src\module\libfoxbms-common-module.a(interlock.c.1.o)
                0x0800cc30                ILCK_SetInterlockState
 .text.ILCK_SwitchInterlockOff
                0x0800cc88       0x20 embedded-software\mcu-common\src\module\libfoxbms-common-module.a(interlock.c.1.o)
                0x0800cc88                ILCK_SwitchInterlockOff
 .text.ILCK_SwitchInterlockOn
                0x0800cca8       0x20 embedded-software\mcu-common\src\module\libfoxbms-common-module.a(interlock.c.1.o)
                0x0800cca8                ILCK_SwitchInterlockOn
 .text.ILCK_CheckReEntrance
                0x0800ccc8       0x3c embedded-software\mcu-common\src\module\libfoxbms-common-module.a(interlock.c.1.o)
 .text.ILCK_GetState
                0x0800cd04       0x18 embedded-software\mcu-common\src\module\libfoxbms-common-module.a(interlock.c.1.o)
                0x0800cd04                ILCK_GetState
 .text.ILCK_TransferStateRequest
                0x0800cd1c       0x2c embedded-software\mcu-common\src\module\libfoxbms-common-module.a(interlock.c.1.o)
 .text.ILCK_SetStateRequest
                0x0800cd48       0x3c embedded-software\mcu-common\src\module\libfoxbms-common-module.a(interlock.c.1.o)
                0x0800cd48                ILCK_SetStateRequest
 .text.ILCK_CheckStateRequest
                0x0800cd84       0x58 embedded-software\mcu-common\src\module\libfoxbms-common-module.a(interlock.c.1.o)
 .text.ILCK_Trigger
                0x0800cddc      0x1f8 embedded-software\mcu-common\src\module\libfoxbms-common-module.a(interlock.c.1.o)
                0x0800cddc                ILCK_Trigger
 .text.ILCK_CheckFeedback
                0x0800cfd4       0x74 embedded-software\mcu-common\src\module\libfoxbms-common-module.a(interlock.c.1.o)
 .text.IO_Init  0x0800d048      0x17c embedded-software\mcu-common\src\module\libfoxbms-common-module.a(io.c.1.o)
                0x0800d048                IO_Init
 .text.IO_ReadPin
                0x0800d1c4       0x40 embedded-software\mcu-common\src\module\libfoxbms-common-module.a(io.c.1.o)
                0x0800d1c4                IO_ReadPin
 .text.IO_WritePin
                0x0800d204       0x44 embedded-software\mcu-common\src\module\libfoxbms-common-module.a(io.c.1.o)
                0x0800d204                IO_WritePin
 .text.IO_TogglePin
                0x0800d248       0x38 embedded-software\mcu-common\src\module\libfoxbms-common-module.a(io.c.1.o)
                0x0800d248                IO_TogglePin
 .text.IO_ClkInit
                0x0800d280       0xac embedded-software\mcu-common\src\module\libfoxbms-common-module.a(io.c.1.o)
 .text.GPIO_Check
                0x0800d32c      0x380 embedded-software\mcu-common\src\module\libfoxbms-common-module.a(portcheck.c.1.o)
                0x0800d32c                GPIO_Check
 .text.MEAS_Ctrl
                0x0800d6ac        0xc embedded-software\mcu-common\src\module\libfoxbms-common-module.a(meas.c.1.o)
                0x0800d6ac                MEAS_Ctrl
 .text.MEAS_StartMeasurement
                0x0800d6b8       0x24 embedded-software\mcu-common\src\module\libfoxbms-common-module.a(meas.c.1.o)
                0x0800d6b8                MEAS_StartMeasurement
 .text.LTC_Initialize_Database
                0x0800d6dc      0x1dc embedded-software\mcu-common\src\module\libfoxbms-common-module.a(ltc.c.1.o)
 .text.LTC_SaveVoltages
                0x0800d8b8      0x18c embedded-software\mcu-common\src\module\libfoxbms-common-module.a(ltc.c.1.o)
                0x0800d8b8                LTC_SaveVoltages
 .text.LTC_SaveTemperatures
                0x0800da44      0x150 embedded-software\mcu-common\src\module\libfoxbms-common-module.a(ltc.c.1.o)
                0x0800da44                LTC_SaveTemperatures
 .text.LTC_SaveBalancingFeedback
                0x0800db94       0x84 embedded-software\mcu-common\src\module\libfoxbms-common-module.a(ltc.c.1.o)
 .text.LTC_Get_BalancingControlValues
                0x0800dc18       0x14 embedded-software\mcu-common\src\module\libfoxbms-common-module.a(ltc.c.1.o)
 *fill*         0x0800dc2c        0x4 ff
 .text.LTC_Convert_MuxVoltages_to_Temperatures
                0x0800dc30       0x48 embedded-software\mcu-common\src\module\libfoxbms-common-module.a(ltc.c.1.o)
 .text.LTC_CheckReEntrance
                0x0800dc78       0x40 embedded-software\mcu-common\src\module\libfoxbms-common-module.a(ltc.c.1.o)
                0x0800dc78                LTC_CheckReEntrance
 .text.LTC_TransferStateRequest
                0x0800dcb8       0x44 embedded-software\mcu-common\src\module\libfoxbms-common-module.a(ltc.c.1.o)
                0x0800dcb8                LTC_TransferStateRequest
 .text.LTC_SetStateRequest
                0x0800dcfc       0x48 embedded-software\mcu-common\src\module\libfoxbms-common-module.a(ltc.c.1.o)
                0x0800dcfc                LTC_SetStateRequest
 .text.LTC_Trigger
                0x0800dd44     0x1c4c embedded-software\mcu-common\src\module\libfoxbms-common-module.a(ltc.c.1.o)
                0x0800dd44                LTC_Trigger
 .text.LTC_SaveMuxMeasurement
                0x0800f990      0x190 embedded-software\mcu-common\src\module\libfoxbms-common-module.a(ltc.c.1.o)
 .text.LTC_SaveRXtoVoltagebuffer
                0x0800fb20      0x168 embedded-software\mcu-common\src\module\libfoxbms-common-module.a(ltc.c.1.o)
 .text.LTC_I2CCheckACK
                0x0800fc88       0xc8 embedded-software\mcu-common\src\module\libfoxbms-common-module.a(ltc.c.1.o)
 .text.LTC_Init
                0x0800fd50      0x1e0 embedded-software\mcu-common\src\module\libfoxbms-common-module.a(ltc.c.1.o)
 .text.LTC_BalanceControl
                0x0800ff30      0x50c embedded-software\mcu-common\src\module\libfoxbms-common-module.a(ltc.c.1.o)
 .text.LTC_ResetErrorTable
                0x0801043c       0x7c embedded-software\mcu-common\src\module\libfoxbms-common-module.a(ltc.c.1.o)
 .text.LTC_Get_MeasurementTCycle
                0x080104b8       0xc0 embedded-software\mcu-common\src\module\libfoxbms-common-module.a(ltc.c.1.o)
 .text.LTC_StartVoltageMeasurement
                0x08010578       0xf4 embedded-software\mcu-common\src\module\libfoxbms-common-module.a(ltc.c.1.o)
 .text.LTC_StartGPIOMeasurement
                0x0801066c      0x194 embedded-software\mcu-common\src\module\libfoxbms-common-module.a(ltc.c.1.o)
 .text.LTC_RX_PECCheck
                0x08010800      0x120 embedded-software\mcu-common\src\module\libfoxbms-common-module.a(ltc.c.1.o)
 .text.LTC_RX   0x08010920       0x78 embedded-software\mcu-common\src\module\libfoxbms-common-module.a(ltc.c.1.o)
 .text.LTC_TX   0x08010998      0x1c8 embedded-software\mcu-common\src\module\libfoxbms-common-module.a(ltc.c.1.o)
 .text.LTC_SetMUXChCommand
                0x08010b60      0x110 embedded-software\mcu-common\src\module\libfoxbms-common-module.a(ltc.c.1.o)
 .text.LTC_SendEEPROMReadCommand
                0x08010c70       0x44 embedded-software\mcu-common\src\module\libfoxbms-common-module.a(ltc.c.1.o)
 .text.LTC_SetEEPROMReadCommand
                0x08010cb4      0x1c4 embedded-software\mcu-common\src\module\libfoxbms-common-module.a(ltc.c.1.o)
 .text.LTC_EEPROMSaveReadValue
                0x08010e78       0x80 embedded-software\mcu-common\src\module\libfoxbms-common-module.a(ltc.c.1.o)
 .text.LTC_SendEEPROMWriteCommand
                0x08010ef8       0x44 embedded-software\mcu-common\src\module\libfoxbms-common-module.a(ltc.c.1.o)
 .text.LTC_SetEEPROMWriteCommand
                0x08010f3c      0x1e8 embedded-software\mcu-common\src\module\libfoxbms-common-module.a(ltc.c.1.o)
 .text.LTC_SetMuxChannel
                0x08011124       0x50 embedded-software\mcu-common\src\module\libfoxbms-common-module.a(ltc.c.1.o)
 .text.LTC_Send_I2C_Command
                0x08011174       0xdc embedded-software\mcu-common\src\module\libfoxbms-common-module.a(ltc.c.1.o)
 .text.LTC_TempSensSaveTemp
                0x08011250       0xbc embedded-software\mcu-common\src\module\libfoxbms-common-module.a(ltc.c.1.o)
 .text.LTC_SetPortExpander
                0x0801130c       0xf4 embedded-software\mcu-common\src\module\libfoxbms-common-module.a(ltc.c.1.o)
 .text.LTC_PortExpanderSaveValues
                0x08011400       0x70 embedded-software\mcu-common\src\module\libfoxbms-common-module.a(ltc.c.1.o)
 .text.LTC_I2CClock
                0x08011470       0x68 embedded-software\mcu-common\src\module\libfoxbms-common-module.a(ltc.c.1.o)
 .text.LTC_GetSPIClock
                0x080114d8       0x94 embedded-software\mcu-common\src\module\libfoxbms-common-module.a(ltc.c.1.o)
 .text.LTC_SetTransferTimes
                0x0801156c       0x7c embedded-software\mcu-common\src\module\libfoxbms-common-module.a(ltc.c.1.o)
 .text.LTC_CheckStateRequest
                0x080115e8       0x40 embedded-software\mcu-common\src\module\libfoxbms-common-module.a(ltc.c.1.o)
 .text.LTC_IsFirstMeasurementCycleFinished
                0x08011628       0x28 embedded-software\mcu-common\src\module\libfoxbms-common-module.a(ltc.c.1.o)
                0x08011628                LTC_IsFirstMeasurementCycleFinished
 .text.LTC_SetFirstMeasurementCycleFinished
                0x08011650       0x1c embedded-software\mcu-common\src\module\libfoxbms-common-module.a(ltc.c.1.o)
                0x08011650                LTC_SetFirstMeasurementCycleFinished
 .text.LTC_pec15_calc
                0x0801166c       0x70 embedded-software\mcu-common\src\module\libfoxbms-common-module.a(ltc_pec.c.1.o)
                0x0801166c                LTC_pec15_calc
 .text.MCU_SystemResetStatus_Init
                0x080116dc       0x50 embedded-software\mcu-common\src\module\libfoxbms-common-module.a(mcu.c.1.o)
                0x080116dc                MCU_SystemResetStatus_Init
 .text.MCU_GetTimeStamp
                0x0801172c       0x10 embedded-software\mcu-common\src\module\libfoxbms-common-module.a(mcu.c.1.o)
                0x0801172c                MCU_GetTimeStamp
 .text.MCU_GetDeviceID
                0x0801173c       0x38 embedded-software\mcu-common\src\module\libfoxbms-common-module.a(mcu.c.1.o)
                0x0801173c                MCU_GetDeviceID
 .text.RCC_ClockConfig
                0x08011774       0x44 embedded-software\mcu-common\src\module\libfoxbms-common-module.a(rcc.c.1.o)
                0x08011774                RCC_ClockConfig
 .text.RTC_Init
                0x080117b8       0xb4 embedded-software\mcu-common\src\module\libfoxbms-common-module.a(rtc.c.1.o)
                0x080117b8                RTC_Init
 .text.RTC_getTime
                0x0801186c       0x1c embedded-software\mcu-common\src\module\libfoxbms-common-module.a(rtc.c.1.o)
                0x0801186c                RTC_getTime
 .text.RTC_getDate
                0x08011888       0x1c embedded-software\mcu-common\src\module\libfoxbms-common-module.a(rtc.c.1.o)
                0x08011888                RTC_getDate
 .text.BKP_SRAM_Init
                0x080118a4       0x40 embedded-software\mcu-common\src\module\libfoxbms-common-module.a(bkpsram.c.1.o)
                0x080118a4                BKP_SRAM_Init
 .text.SPI_Init
                0x080118e4      0x1b8 embedded-software\mcu-common\src\module\libfoxbms-common-module.a(spi.c.1.o)
                0x080118e4                SPI_Init
 .text.HAL_SPI_TxRxCpltCallback
                0x08011a9c       0x2c embedded-software\mcu-common\src\module\libfoxbms-common-module.a(spi.c.1.o)
                0x08011a9c                HAL_SPI_TxRxCpltCallback
 .text.HAL_SPI_TxCpltCallback
                0x08011ac8       0x2c embedded-software\mcu-common\src\module\libfoxbms-common-module.a(spi.c.1.o)
                0x08011ac8                HAL_SPI_TxCpltCallback
 .text.SPI_SetCS
                0x08011af4       0x4c embedded-software\mcu-common\src\module\libfoxbms-common-module.a(spi.c.1.o)
                0x08011af4                SPI_SetCS
 .text.SPI_UnsetCS
                0x08011b40       0x4c embedded-software\mcu-common\src\module\libfoxbms-common-module.a(spi.c.1.o)
                0x08011b40                SPI_UnsetCS
 .text.SPI_Transmit
                0x08011b8c       0x40 embedded-software\mcu-common\src\module\libfoxbms-common-module.a(spi.c.1.o)
                0x08011b8c                SPI_Transmit
 .text.SPI_TransmitReceive
                0x08011bcc       0x40 embedded-software\mcu-common\src\module\libfoxbms-common-module.a(spi.c.1.o)
                0x08011bcc                SPI_TransmitReceive
 .text.SPI_IsTransmitOngoing
                0x08011c0c       0x24 embedded-software\mcu-common\src\module\libfoxbms-common-module.a(spi.c.1.o)
                0x08011c0c                SPI_IsTransmitOngoing
 .text.SPI_SetTransmitOngoing
                0x08011c30       0x18 embedded-software\mcu-common\src\module\libfoxbms-common-module.a(spi.c.1.o)
                0x08011c30                SPI_SetTransmitOngoing
 .text.LED_Init
                0x08011c48       0x18 embedded-software\mcu-common\src\module\libfoxbms-common-module.a(led.c.1.o)
                0x08011c48                LED_Init
 .text.LED_Ctrl
                0x08011c60      0x1d4 embedded-software\mcu-common\src\module\libfoxbms-common-module.a(led.c.1.o)
                0x08011c60                LED_Ctrl
 .text.WDG_Init
                0x08011e34       0x38 embedded-software\mcu-common\src\module\libfoxbms-common-module.a(wdg.c.1.o)
                0x08011e34                WDG_Init
 .text.WDG_IWDG_Refresh
                0x08011e6c       0x10 embedded-software\mcu-common\src\module\libfoxbms-common-module.a(wdg.c.1.o)
                0x08011e6c                WDG_IWDG_Refresh
 .text.CAN_CheckNodeID
                0x08011e7c       0x2c embedded-software\mcu-common\src\module\libfoxbms-common-module.a(can_cfg.c.1.o)
                0x08011e7c                CAN_CheckNodeID
 .text.CAN_CheckBroadcastID
                0x08011ea8       0x28 embedded-software\mcu-common\src\module\libfoxbms-common-module.a(can_cfg.c.1.o)
                0x08011ea8                CAN_CheckBroadcastID
 .text.CAN_CheckUniqueDeviceID
                0x08011ed0       0x30 embedded-software\mcu-common\src\module\libfoxbms-common-module.a(can_cfg.c.1.o)
                0x08011ed0                CAN_CheckUniqueDeviceID
 *src/application*(.text*)
 *application.a:(.text*)
 .text.APPL_CreateMutex
                0x08011f00        0xc embedded-software\mcu-secondary\src\application\libfoxbms-application.a(appltask.c.1.o)
                0x08011f00                APPL_CreateMutex
 .text.APPL_CreateEvent
                0x08011f0c        0xc embedded-software\mcu-secondary\src\application\libfoxbms-application.a(appltask.c.1.o)
                0x08011f0c                APPL_CreateEvent
 .text.APPL_CreateTask
                0x08011f18       0xb8 embedded-software\mcu-secondary\src\application\libfoxbms-application.a(appltask.c.1.o)
                0x08011f18                APPL_CreateTask
 .text.APPL_TSK_Cyclic_1ms
                0x08011fd0       0x48 embedded-software\mcu-secondary\src\application\libfoxbms-application.a(appltask.c.1.o)
                0x08011fd0                APPL_TSK_Cyclic_1ms
 .text.APPL_TSK_Cyclic_10ms
                0x08012018       0x48 embedded-software\mcu-secondary\src\application\libfoxbms-application.a(appltask.c.1.o)
                0x08012018                APPL_TSK_Cyclic_10ms
 .text.APPL_TSK_Cyclic_100ms
                0x08012060       0x48 embedded-software\mcu-secondary\src\application\libfoxbms-application.a(appltask.c.1.o)
                0x08012060                APPL_TSK_Cyclic_100ms
 .text.APPL_Cyclic_1ms
                0x080120a8       0x14 embedded-software\mcu-secondary\src\application\libfoxbms-application.a(appltask_cfg.c.1.o)
                0x080120a8                APPL_Cyclic_1ms
 .text.APPL_Cyclic_10ms
                0x080120bc       0x10 embedded-software\mcu-secondary\src\application\libfoxbms-application.a(appltask_cfg.c.1.o)
                0x080120bc                APPL_Cyclic_10ms
 .text.APPL_Cyclic_100ms
                0x080120cc       0x10 embedded-software\mcu-secondary\src\application\libfoxbms-application.a(appltask_cfg.c.1.o)
                0x080120cc                APPL_Cyclic_100ms
 .text.BMS_CheckReEntrance
                0x080120dc       0x3c embedded-software\mcu-secondary\src\application\libfoxbms-application.a(bms.c.1.o)
 .text.BMS_GetState
                0x08012118       0x18 embedded-software\mcu-secondary\src\application\libfoxbms-application.a(bms.c.1.o)
                0x08012118                BMS_GetState
 .text.BMS_TransferStateRequest
                0x08012130       0x2c embedded-software\mcu-secondary\src\application\libfoxbms-application.a(bms.c.1.o)
 .text.BMS_SetStateRequest
                0x0801215c       0x3c embedded-software\mcu-secondary\src\application\libfoxbms-application.a(bms.c.1.o)
                0x0801215c                BMS_SetStateRequest
 .text.BMS_CheckStateRequest
                0x08012198       0x48 embedded-software\mcu-secondary\src\application\libfoxbms-application.a(bms.c.1.o)
 .text.BMS_Trigger
                0x080121e0      0x210 embedded-software\mcu-secondary\src\application\libfoxbms-application.a(bms.c.1.o)
                0x080121e0                BMS_Trigger
 .text.BMS_CheckVoltages
                0x080123f0       0x5c embedded-software\mcu-secondary\src\application\libfoxbms-application.a(bms.c.1.o)
 .text.BMS_CheckTemperatures
                0x0801244c       0xd8 embedded-software\mcu-secondary\src\application\libfoxbms-application.a(bms.c.1.o)
 .text.BMS_CheckCurrent
                0x08012524       0x94 embedded-software\mcu-secondary\src\application\libfoxbms-application.a(bms.c.1.o)
 .text.BMS_CheckAnyErrorFlagSet
                0x080125b8       0x9c embedded-software\mcu-secondary\src\application\libfoxbms-application.a(bms.c.1.o)
 *(.text)
 *(.text*)
 *(.glue_7)
 .glue_7        0x00000000        0x0 linker stubs
 *(.glue_7t)
 .glue_7t       0x00000000        0x0 linker stubs
 *(.eh_frame)
 .eh_frame      0x08012654        0x0 c:/foxconda/library/bin/../lib/gcc/arm-none-eabi/4.9.3/armv7e-m/softfp/crtbegin.o
 *(.init)
 .init          0x08012654        0x4 c:/foxconda/library/bin/../lib/gcc/arm-none-eabi/4.9.3/armv7e-m/softfp/crti.o
                0x08012654                _init
 .init          0x08012658        0x8 c:/foxconda/library/bin/../lib/gcc/arm-none-eabi/4.9.3/armv7e-m/softfp/crtn.o
 *(.fini)
 .fini          0x08012660        0x4 c:/foxconda/library/bin/../lib/gcc/arm-none-eabi/4.9.3/armv7e-m/softfp/crti.o
                0x08012660                _fini
 .fini          0x08012664        0x8 c:/foxconda/library/bin/../lib/gcc/arm-none-eabi/4.9.3/armv7e-m/softfp/crtn.o
                0x08012670                . = ALIGN (0x10)
 *fill*         0x0801266c        0x4 ff
                0x08012670                _etext = .

.vfp11_veneer   0x08012670        0x0
 .vfp11_veneer  0x00000000        0x0 linker stubs

.v4_bx          0x08012670        0x0
 .v4_bx         0x00000000        0x0 linker stubs

.iplt           0x08012670        0x0
 .iplt          0x00000000        0x0 c:/foxconda/library/bin/../lib/gcc/arm-none-eabi/4.9.3/armv7e-m/softfp/crtbegin.o

.rodata         0x08012670      0xa54
                0x08012670                . = ALIGN (0x4)
 *(.rodata)
 .rodata        0x08012670        0x5 embedded-software\mcu-freertos\libfoxbms-os.a(tasks.c.1.o)
 *fill*         0x08012675        0x3 ff
 .rodata        0x08012678        0xd embedded-software\mcu-freertos\libfoxbms-os.a(timers.c.1.o)
 *fill*         0x08012685        0x3 ff
 .rodata        0x08012688       0x42 embedded-software\mcu-secondary\src\application\libfoxbms-application.a(appltask.c.1.o)
 *fill*         0x080126ca        0x2 ff
 .rodata        0x080126cc       0x62 embedded-software\mcu-secondary\src\engine\libfoxbms-engine.a(enginetask_cfg.c.1.o)
 *fill*         0x0801272e        0x2 ff
 .rodata        0x08012730       0x4d embedded-software\mcu-hal\STM32F4xx_HAL_Driver\libfoxbms-stmhal.a(stm32f4xx_hal_adc.c.1.o)
 *fill*         0x0801277d        0x3 ff
 .rodata        0x08012780       0x4d embedded-software\mcu-hal\STM32F4xx_HAL_Driver\libfoxbms-stmhal.a(stm32f4xx_hal_can.c.1.o)
 *fill*         0x080127cd        0x3 ff
 .rodata        0x080127d0       0x50 embedded-software\mcu-hal\STM32F4xx_HAL_Driver\libfoxbms-stmhal.a(stm32f4xx_hal_cortex.c.1.o)
 .rodata        0x08012820       0x4d embedded-software\mcu-hal\STM32F4xx_HAL_Driver\libfoxbms-stmhal.a(stm32f4xx_hal_dma.c.1.o)
 *fill*         0x0801286d        0x3 ff
 .rodata        0x08012870       0x4e embedded-software\mcu-hal\STM32F4xx_HAL_Driver\libfoxbms-stmhal.a(stm32f4xx_hal_gpio.c.1.o)
 *fill*         0x080128be        0x2 ff
 .rodata        0x080128c0       0x4e embedded-software\mcu-hal\STM32F4xx_HAL_Driver\libfoxbms-stmhal.a(stm32f4xx_hal_iwdg.c.1.o)
 *fill*         0x0801290e        0x2 ff
 .rodata        0x08012910       0x4d embedded-software\mcu-hal\STM32F4xx_HAL_Driver\libfoxbms-stmhal.a(stm32f4xx_hal_rcc.c.1.o)
 *fill*         0x0801295d        0x3 ff
 .rodata        0x08012960       0x50 embedded-software\mcu-hal\STM32F4xx_HAL_Driver\libfoxbms-stmhal.a(stm32f4xx_hal_rcc_ex.c.1.o)
 .rodata        0x080129b0       0x4d embedded-software\mcu-hal\STM32F4xx_HAL_Driver\libfoxbms-stmhal.a(stm32f4xx_hal_rtc.c.1.o)
 *fill*         0x080129fd        0x3 ff
 .rodata        0x08012a00       0x4d embedded-software\mcu-hal\STM32F4xx_HAL_Driver\libfoxbms-stmhal.a(stm32f4xx_hal_spi.c.1.o)
 *(.rodata*)
 .rodata.nvic_cfg_length
                0x08012a4d        0x1 embedded-software\mcu-secondary\src\general\config\nvic_cfg.c.1.o
                0x08012a4d                nvic_cfg_length
 *fill*         0x08012a4e        0x2 ff
 .rodata.appl_tskdef_10ms
                0x08012a50       0x10 embedded-software\mcu-secondary\src\application\libfoxbms-application.a(appltask_cfg.c.1.o)
                0x08012a50                appl_tskdef_10ms
 .rodata.adc_number_of_used_devices
                0x08012a60        0x1 embedded-software\mcu-secondary\src\module\libfoxbms-module.a(adc_cfg.c.1.o)
                0x08012a60                adc_number_of_used_devices
 *fill*         0x08012a61        0x3 ff
 .rodata.ltc_cmdDummy
                0x08012a64        0x1 embedded-software\mcu-common\src\module\libfoxbms-common-module.a(ltc.c.1.o)
 *fill*         0x08012a65        0x3 ff
 .rodata.ltc_cmdWRCFG
                0x08012a68        0x4 embedded-software\mcu-common\src\module\libfoxbms-common-module.a(ltc.c.1.o)
 .rodata.ltc_cmdWRCFG2
                0x08012a6c        0x4 embedded-software\mcu-common\src\module\libfoxbms-common-module.a(ltc.c.1.o)
 .rodata.ltc_cmdRDCVA
                0x08012a70        0x4 embedded-software\mcu-common\src\module\libfoxbms-common-module.a(ltc.c.1.o)
 .rodata.ltc_cmdRDCVB
                0x08012a74        0x4 embedded-software\mcu-common\src\module\libfoxbms-common-module.a(ltc.c.1.o)
 .rodata.ltc_cmdRDCVC
                0x08012a78        0x4 embedded-software\mcu-common\src\module\libfoxbms-common-module.a(ltc.c.1.o)
 .rodata.ltc_cmdRDCVD
                0x08012a7c        0x4 embedded-software\mcu-common\src\module\libfoxbms-common-module.a(ltc.c.1.o)
 .rodata.ltc_cmdWRCOMM
                0x08012a80        0x4 embedded-software\mcu-common\src\module\libfoxbms-common-module.a(ltc.c.1.o)
 .rodata.ltc_cmdRDCOMM
                0x08012a84        0x4 embedded-software\mcu-common\src\module\libfoxbms-common-module.a(ltc.c.1.o)
 .rodata.ltc_cmdRDAUXA
                0x08012a88        0x4 embedded-software\mcu-common\src\module\libfoxbms-common-module.a(ltc.c.1.o)
 .rodata.ltc_I2CcmdTempSens0
                0x08012a8c        0x6 embedded-software\mcu-common\src\module\libfoxbms-common-module.a(ltc.c.1.o)
 *fill*         0x08012a92        0x2 ff
 .rodata.ltc_I2CcmdTempSens1
                0x08012a94        0x6 embedded-software\mcu-common\src\module\libfoxbms-common-module.a(ltc.c.1.o)
 *fill*         0x08012a9a        0x2 ff
 .rodata.ltc_I2CcmdPortExpander1
                0x08012a9c        0x6 embedded-software\mcu-common\src\module\libfoxbms-common-module.a(ltc.c.1.o)
 *fill*         0x08012aa2        0x2 ff
 .rodata.ltc_cmdADCV_normal_DCP0
                0x08012aa4        0x4 embedded-software\mcu-common\src\module\libfoxbms-common-module.a(ltc.c.1.o)
 .rodata.ltc_cmdADCV_normal_DCP1
                0x08012aa8        0x4 embedded-software\mcu-common\src\module\libfoxbms-common-module.a(ltc.c.1.o)
 .rodata.ltc_cmdADCV_filtered_DCP0
                0x08012aac        0x4 embedded-software\mcu-common\src\module\libfoxbms-common-module.a(ltc.c.1.o)
 .rodata.ltc_cmdADCV_filtered_DCP1
                0x08012ab0        0x4 embedded-software\mcu-common\src\module\libfoxbms-common-module.a(ltc.c.1.o)
 .rodata.ltc_cmdADCV_fast_DCP0
                0x08012ab4        0x4 embedded-software\mcu-common\src\module\libfoxbms-common-module.a(ltc.c.1.o)
 .rodata.ltc_cmdADCV_fast_DCP1
                0x08012ab8        0x4 embedded-software\mcu-common\src\module\libfoxbms-common-module.a(ltc.c.1.o)
 .rodata.ltc_cmdADCV_fast_DCP0_twocells
                0x08012abc        0x4 embedded-software\mcu-common\src\module\libfoxbms-common-module.a(ltc.c.1.o)
 .rodata.ltc_cmdADAX_normal_GPIO1
                0x08012ac0        0x4 embedded-software\mcu-common\src\module\libfoxbms-common-module.a(ltc.c.1.o)
 .rodata.ltc_cmdADAX_filtered_GPIO1
                0x08012ac4        0x4 embedded-software\mcu-common\src\module\libfoxbms-common-module.a(ltc.c.1.o)
 .rodata.ltc_cmdADAX_fast_GPIO1
                0x08012ac8        0x4 embedded-software\mcu-common\src\module\libfoxbms-common-module.a(ltc.c.1.o)
 .rodata.ltc_cmdADAX_normal_GPIO2
                0x08012acc        0x4 embedded-software\mcu-common\src\module\libfoxbms-common-module.a(ltc.c.1.o)
 .rodata.ltc_cmdADAX_filtered_GPIO2
                0x08012ad0        0x4 embedded-software\mcu-common\src\module\libfoxbms-common-module.a(ltc.c.1.o)
 .rodata.ltc_cmdADAX_fast_GPIO2
                0x08012ad4        0x4 embedded-software\mcu-common\src\module\libfoxbms-common-module.a(ltc.c.1.o)
 .rodata.ltc_cmdADAX_normal_GPIO3
                0x08012ad8        0x4 embedded-software\mcu-common\src\module\libfoxbms-common-module.a(ltc.c.1.o)
 .rodata.ltc_cmdADAX_filtered_GPIO3
                0x08012adc        0x4 embedded-software\mcu-common\src\module\libfoxbms-common-module.a(ltc.c.1.o)
 .rodata.ltc_cmdADAX_fast_GPIO3
                0x08012ae0        0x4 embedded-software\mcu-common\src\module\libfoxbms-common-module.a(ltc.c.1.o)
 .rodata.ltc_cmdADAX_normal_ALLGPIOS
                0x08012ae4        0x4 embedded-software\mcu-common\src\module\libfoxbms-common-module.a(ltc.c.1.o)
 .rodata.ltc_cmdADAX_filtered_ALLGPIOS
                0x08012ae8        0x4 embedded-software\mcu-common\src\module\libfoxbms-common-module.a(ltc.c.1.o)
 .rodata.ltc_cmdADAX_fast_ALLGPIOS
                0x08012aec        0x4 embedded-software\mcu-common\src\module\libfoxbms-common-module.a(ltc.c.1.o)
 .rodata.crc15Table
                0x08012af0      0x400 embedded-software\mcu-common\src\module\libfoxbms-common-module.a(ltc_pec.c.1.o)
 .rodata.dma_number_of_used_streams
                0x08012ef0        0x1 embedded-software\mcu-common\src\module\libfoxbms-common-module.a(dma_cfg.c.1.o)
                0x08012ef0                dma_number_of_used_streams
 *fill*         0x08012ef1        0x3 ff
 .rodata.io_cfg
                0x08012ef4      0x1a0 embedded-software\mcu-common\src\module\libfoxbms-common-module.a(io_cfg.c.1.o)
                0x08012ef4                io_cfg
 .rodata.io_cfg_length
                0x08013094        0x1 embedded-software\mcu-common\src\module\libfoxbms-common-module.a(io_cfg.c.1.o)
                0x08013094                io_cfg_length
 *fill*         0x08013095        0x3 ff
 .rodata.ltc_muxsensortemperatur_cfg
                0x08013098        0x4 embedded-software\mcu-common\src\module\libfoxbms-common-module.a(ltc_cfg.c.1.o)
                0x08013098                ltc_muxsensortemperatur_cfg
 .rodata.ltc_voltage_input_used
                0x0801309c        0xc embedded-software\mcu-common\src\module\libfoxbms-common-module.a(ltc_cfg.c.1.o)
                0x0801309c                ltc_voltage_input_used
 .rodata.can_CAN0_rx_length
                0x080130a8        0x1 embedded-software\mcu-common\src\module\libfoxbms-common-module.a(can_cfg.c.1.o)
                0x080130a8                can_CAN0_rx_length
 .rodata.can_CAN1_rx_length
                0x080130a9        0x1 embedded-software\mcu-common\src\module\libfoxbms-common-module.a(can_cfg.c.1.o)
                0x080130a9                can_CAN1_rx_length
 *fill*         0x080130aa        0x2 ff
 .rodata.flagBitshiftOffset.7992
                0x080130ac        0x8 embedded-software\mcu-hal\STM32F4xx_HAL_Driver\libfoxbms-stmhal.a(stm32f4xx_hal_dma.c.1.o)
 .rodata.APBAHBPrescTable
                0x080130b4       0x10 embedded-software\mcu-hal\STM32F4xx_HAL_Driver\libfoxbms-stmhal.a(stm32f4xx_hal_rcc.c.1.o)
                0x080130b4                APBAHBPrescTable
                0x080130c4                . = ALIGN (0x4)

.rel.dyn        0x080130c4        0x0
 .rel.iplt      0x00000000        0x0 c:/foxconda/library/bin/../lib/gcc/arm-none-eabi/4.9.3/armv7e-m/softfp/crtbegin.o

.ARM.extab
 *(.ARM.extab* .gnu.linkonce.armextab.*)

.ARM            0x080130c4        0x0
                0x080130c4                __exidx_start = .
 *(.ARM.exidx*)
                0x080130c4                __exidx_end = .

.preinit_array  0x080130c4        0x0
                0x080130c4                PROVIDE (__preinit_array_start, .)
 *(.preinit_array*)
                0x080130c4                PROVIDE (__preinit_array_end, .)

.init_array     0x080130c4        0x4
                0x080130c4                PROVIDE (__init_array_start, .)
 *(SORT(.init_array.*))
 *(.init_array*)
 .init_array    0x080130c4        0x4 c:/foxconda/library/bin/../lib/gcc/arm-none-eabi/4.9.3/armv7e-m/softfp/crtbegin.o
                0x080130c8                PROVIDE (__init_array_end, .)

.fini_array     0x080130c8        0x4
                0x080130c8                PROVIDE (__fini_array_start, .)
 *(SORT(.fini_array.*))
 *(.fini_array*)
 .fini_array    0x080130c8        0x4 c:/foxconda/library/bin/../lib/gcc/arm-none-eabi/4.9.3/armv7e-m/softfp/crtbegin.o
                0x080130cc                PROVIDE (__fini_array_end, .)
                0x080130cc                _sidata = LOADADDR (.data)
                0x080130cc                _sidata = LOADADDR (.data)

.data           0x20000000     0x1084 load address 0x080130cc
                0x20000000                . = ALIGN (0x4)
                0x20000000                _sdata = .
 *(.data)
 *(.data*)
 .data.nvic_interrupts
                0x20000000       0x38 embedded-software\mcu-secondary\src\general\config\nvic_cfg.c.1.o
                0x20000000                nvic_interrupts
 .data.SystemCoreClock
                0x20000038        0x4 embedded-software\mcu-secondary\src\general\config\system_stm32f4xx.c.1.o
                0x20000038                SystemCoreClock
 .data.uxCriticalNesting
                0x2000003c        0x4 embedded-software\mcu-freertos\libfoxbms-os.a(port.c.1.o)
 .data.appl_tskdef_1ms
                0x20000040       0x10 embedded-software\mcu-secondary\src\application\libfoxbms-application.a(appltask_cfg.c.1.o)
                0x20000040                appl_tskdef_1ms
 .data.appl_tskdef_100ms
                0x20000050       0x10 embedded-software\mcu-secondary\src\application\libfoxbms-application.a(appltask_cfg.c.1.o)
                0x20000050                appl_tskdef_100ms
 .data.bms_state
                0x20000060       0x10 embedded-software\mcu-secondary\src\application\libfoxbms-application.a(bms.c.1.o)
 .data.data_base_header
                0x20000070       0x80 embedded-software\mcu-secondary\src\engine\libfoxbms-engine.a(database_cfg.c.1.o)
                0x20000070                data_base_header
 .data.data_base_dev
                0x200000f0        0x8 embedded-software\mcu-secondary\src\engine\libfoxbms-engine.a(database_cfg.c.1.o)
                0x200000f0                data_base_dev
 .data.diag_ch_cfg
                0x200000f8      0x924 embedded-software\mcu-secondary\src\engine\libfoxbms-engine.a(diag_cfg.c.1.o)
                0x200000f8                diag_ch_cfg
 .data.diag_sysmon_ch_cfg
                0x20000a1c       0x78 embedded-software\mcu-secondary\src\engine\libfoxbms-engine.a(diag_cfg.c.1.o)
                0x20000a1c                diag_sysmon_ch_cfg
 .data.diag_dev
                0x20000a94        0x8 embedded-software\mcu-secondary\src\engine\libfoxbms-engine.a(diag_cfg.c.1.o)
                0x20000a94                diag_dev
 .data.eng_tskdef_cyclic_1ms
                0x20000a9c       0x10 embedded-software\mcu-secondary\src\engine\libfoxbms-engine.a(enginetask_cfg.c.1.o)
                0x20000a9c                eng_tskdef_cyclic_1ms
 .data.eng_tskdef_cyclic_10ms
                0x20000aac       0x10 embedded-software\mcu-secondary\src\engine\libfoxbms-engine.a(enginetask_cfg.c.1.o)
                0x20000aac                eng_tskdef_cyclic_10ms
 .data.eng_tskdef_cyclic_100ms
                0x20000abc       0x10 embedded-software\mcu-secondary\src\engine\libfoxbms-engine.a(enginetask_cfg.c.1.o)
                0x20000abc                eng_tskdef_cyclic_100ms
 .data.eng_tskdef_eventhandler
                0x20000acc       0x10 embedded-software\mcu-secondary\src\engine\libfoxbms-engine.a(enginetask_cfg.c.1.o)
                0x20000acc                eng_tskdef_eventhandler
 .data.eng_tskdef_diagnosis
                0x20000adc       0x10 embedded-software\mcu-secondary\src\engine\libfoxbms-engine.a(enginetask_cfg.c.1.o)
                0x20000adc                eng_tskdef_diagnosis
 .data.eng_tskdef_engine
                0x20000aec       0x10 embedded-software\mcu-secondary\src\engine\libfoxbms-engine.a(enginetask_cfg.c.1.o)
 .data.sys_state
                0x20000afc       0x10 embedded-software\mcu-secondary\src\engine\libfoxbms-engine.a(sys.c.1.o)
 .data.adc_cfg  0x20000b0c       0x10 embedded-software\mcu-secondary\src\module\libfoxbms-module.a(adc_ex.c.1.o)
 .data.adc_devices
                0x20000b1c       0x48 embedded-software\mcu-secondary\src\module\libfoxbms-module.a(adc_cfg.c.1.o)
                0x20000b1c                adc_devices
 .data.htim3    0x20000b64       0x3c embedded-software\mcu-secondary\src\module\libfoxbms-module.a(timer_cfg.c.1.o)
                0x20000b64                htim3
 .data.can0_txbuffer
                0x20000ba0        0x8 embedded-software\mcu-common\src\module\libfoxbms-common-module.a(can.c.1.o)
                0x20000ba0                can0_txbuffer
 .data.can0_rxbuffer
                0x20000ba8        0x8 embedded-software\mcu-common\src\module\libfoxbms-common-module.a(can.c.1.o)
                0x20000ba8                can0_rxbuffer
 .data.sFilterConfig
                0x20000bb0       0x28 embedded-software\mcu-common\src\module\libfoxbms-common-module.a(can.c.1.o)
                0x20000bb0                sFilterConfig
 .data.ilck_state
                0x20000bd8       0x10 embedded-software\mcu-common\src\module\libfoxbms-common-module.a(interlock.c.1.o)
 .data.ltc_state
                0x20000be8       0xd0 embedded-software\mcu-common\src\module\libfoxbms-common-module.a(ltc.c.1.o)
 .data.led_0_nbr_of_blink.8082
                0x20000cb8        0x1 embedded-software\mcu-common\src\module\libfoxbms-common-module.a(led.c.1.o)
 .data.led_1_nbr_of_blink.8083
                0x20000cb9        0x1 embedded-software\mcu-common\src\module\libfoxbms-common-module.a(led.c.1.o)
 .data.led_blink_time.8084
                0x20000cba        0x2 embedded-software\mcu-common\src\module\libfoxbms-common-module.a(led.c.1.o)
 .data.led_state.8085
                0x20000cbc        0x1 embedded-software\mcu-common\src\module\libfoxbms-common-module.a(led.c.1.o)
 *fill*         0x20000cbd        0x3 ff
 .data.dma_devices
                0x20000cc0       0xc0 embedded-software\mcu-common\src\module\libfoxbms-common-module.a(dma_cfg.c.1.o)
                0x20000cc0                dma_devices
 .data.ilck_interlock_config
                0x20000d80        0x3 embedded-software\mcu-common\src\module\libfoxbms-common-module.a(interlock_cfg.c.1.o)
                0x20000d80                ilck_interlock_config
 *fill*         0x20000d83        0x1 ff
 .data.ltc_mux_seq_main_ch1
                0x20000d84        0x8 embedded-software\mcu-common\src\module\libfoxbms-common-module.a(ltc_cfg.c.1.o)
                0x20000d84                ltc_mux_seq_main_ch1
 .data.ltc_mux_seq
                0x20000d8c        0x8 embedded-software\mcu-common\src\module\libfoxbms-common-module.a(ltc_cfg.c.1.o)
                0x20000d8c                ltc_mux_seq
 .data.RCC_OscInitStruct
                0x20000d94       0x30 embedded-software\mcu-common\src\module\libfoxbms-common-module.a(rcc_cfg.c.1.o)
                0x20000d94                RCC_OscInitStruct
 .data.RCC_ClkInitStruct
                0x20000dc4       0x14 embedded-software\mcu-common\src\module\libfoxbms-common-module.a(rcc_cfg.c.1.o)
                0x20000dc4                RCC_ClkInitStruct
 .data.rtc_cfg  0x20000dd8       0x94 embedded-software\mcu-common\src\module\libfoxbms-common-module.a(rtc_cfg.c.1.o)
                0x20000dd8                rtc_cfg
 .data.hcan0    0x20000e6c       0x40 embedded-software\mcu-common\src\module\libfoxbms-common-module.a(can_cfg.c.1.o)
                0x20000e6c                hcan0
 .data.hcan1    0x20000eac       0x40 embedded-software\mcu-common\src\module\libfoxbms-common-module.a(can_cfg.c.1.o)
                0x20000eac                hcan1
 .data.can0_RxMsgs
                0x20000eec       0x40 embedded-software\mcu-common\src\module\libfoxbms-common-module.a(can_cfg.c.1.o)
                0x20000eec                can0_RxMsgs
 .data.can1_RxMsgs
                0x20000f2c       0x40 embedded-software\mcu-common\src\module\libfoxbms-common-module.a(can_cfg.c.1.o)
                0x20000f2c                can1_RxMsgs
 .data.can0_bufferBypass_RxMsgs
                0x20000f6c        0xc embedded-software\mcu-common\src\module\libfoxbms-common-module.a(can_cfg.c.1.o)
                0x20000f6c                can0_bufferBypass_RxMsgs
 .data.spi_devices
                0x20000f78      0x108 embedded-software\mcu-common\src\module\libfoxbms-common-module.a(spi_cfg.c.1.o)
                0x20000f78                spi_devices
 .data.spi_number_of_used_SPI_channels
                0x20001080        0x1 embedded-software\mcu-common\src\module\libfoxbms-common-module.a(spi_cfg.c.1.o)
                0x20001080                spi_number_of_used_SPI_channels
                0x20001084                . = ALIGN (0x4)
 *fill*         0x20001081        0x3 ff
                0x20001084                _edata = .
                0x08014150                _siccmram = LOADADDR (.ccmram)

.jcr            0x20001084        0x0 load address 0x08014150
 .jcr           0x20001084        0x0 c:/foxconda/library/bin/../lib/gcc/arm-none-eabi/4.9.3/armv7e-m/softfp/crtbegin.o

.igot.plt       0x20001084        0x0 load address 0x08014150
 .igot.plt      0x00000000        0x0 c:/foxconda/library/bin/../lib/gcc/arm-none-eabi/4.9.3/armv7e-m/softfp/crtbegin.o

.ccmram         0x10000000        0x0 load address 0x08014150
                0x10000000                . = ALIGN (0x4)
                0x10000000                _sccmram = .
 *(.ccmram)
 *(.ccmram*)
                0x10000000                . = ALIGN (0x4)
                0x10000000                _eccmram = .
                0x08014150                _eflash1 = (_siccmram + (_eccmram - _sccmram))
                0x10000000                . = ALIGN (0x4)

.bkp_ramsect    0x40024000      0xc7c
 *(.BKP_RAMSection*)
 .BKP_RAMSection
                0x40024000      0x8a8 embedded-software\mcu-secondary\src\engine\libfoxbms-engine.a(diag.c.1.o)
                0x40024000                diag_memory
                0x40024640                diag_entry_wrptr
                0x40024644                diag_entry_rdptr
                0x40024648                diagContactorErrorMemory
                0x400248a0                diagContactorError_entry_wrptr
                0x400248a4                diagContactorError_entry_rdptr
 .BKP_RAMSection
                0x400248a8      0x3d4 embedded-software\mcu-secondary\src\module\libfoxbms-module.a(bkpsram_cfg.c.1.o)
                0x400248a8                bkpsram_nvsoc
                0x400248b8                bkpsram_contactors_count
                0x400248f8                bkpsram_operating_hours
                0x40024908                main_state
                0x40024c70                bkpsram_op_hours
                0x40024c7c                . = ALIGN (0x4)

.bss            0x20001084     0x4be8
                0x20001084                _sbss = .
                0x20001084                __bss_start__ = _sbss
 *(.bss)
 .bss           0x20001084       0x1c c:/foxconda/library/bin/../lib/gcc/arm-none-eabi/4.9.3/armv7e-m/softfp/crtbegin.o
 *(.bss*)
 .bss.CAN_CLK1_enabled
                0x200010a0        0x1 embedded-software\mcu-secondary\src\general\config\stm32f4xx_hal_msp.c.1.o
 .bss.ucMaxSysCallPriority
                0x200010a1        0x1 embedded-software\mcu-freertos\libfoxbms-os.a(port.c.1.o)
 *fill*         0x200010a2        0x2 
 .bss.ulMaxPRIGROUPValue
                0x200010a4        0x4 embedded-software\mcu-freertos\libfoxbms-os.a(port.c.1.o)
 .bss.ucHeap    0x200010a8     0x3c00 embedded-software\mcu-freertos\libfoxbms-os.a(heap_4.c.1.o)
 .bss.xStart    0x20004ca8        0x8 embedded-software\mcu-freertos\libfoxbms-os.a(heap_4.c.1.o)
 .bss.pxEnd     0x20004cb0        0x4 embedded-software\mcu-freertos\libfoxbms-os.a(heap_4.c.1.o)
 .bss.xFreeBytesRemaining
                0x20004cb4        0x4 embedded-software\mcu-freertos\libfoxbms-os.a(heap_4.c.1.o)
 .bss.xMinimumEverFreeBytesRemaining
                0x20004cb8        0x4 embedded-software\mcu-freertos\libfoxbms-os.a(heap_4.c.1.o)
 .bss.xBlockAllocatedBit
                0x20004cbc        0x4 embedded-software\mcu-freertos\libfoxbms-os.a(heap_4.c.1.o)
 .bss.xQueueRegistry
                0x20004cc0       0x40 embedded-software\mcu-freertos\libfoxbms-os.a(queue.c.1.o)
                0x20004cc0                xQueueRegistry
 .bss.pxCurrentTCB
                0x20004d00        0x4 embedded-software\mcu-freertos\libfoxbms-os.a(tasks.c.1.o)
                0x20004d00                pxCurrentTCB
 .bss.pxReadyTasksLists
                0x20004d04       0xc8 embedded-software\mcu-freertos\libfoxbms-os.a(tasks.c.1.o)
 .bss.xDelayedTaskList1
                0x20004dcc       0x14 embedded-software\mcu-freertos\libfoxbms-os.a(tasks.c.1.o)
 .bss.xDelayedTaskList2
                0x20004de0       0x14 embedded-software\mcu-freertos\libfoxbms-os.a(tasks.c.1.o)
 .bss.pxDelayedTaskList
                0x20004df4        0x4 embedded-software\mcu-freertos\libfoxbms-os.a(tasks.c.1.o)
 .bss.pxOverflowDelayedTaskList
                0x20004df8        0x4 embedded-software\mcu-freertos\libfoxbms-os.a(tasks.c.1.o)
 .bss.xPendingReadyList
                0x20004dfc       0x14 embedded-software\mcu-freertos\libfoxbms-os.a(tasks.c.1.o)
 .bss.xTasksWaitingTermination
                0x20004e10       0x14 embedded-software\mcu-freertos\libfoxbms-os.a(tasks.c.1.o)
 .bss.uxDeletedTasksWaitingCleanUp
                0x20004e24        0x4 embedded-software\mcu-freertos\libfoxbms-os.a(tasks.c.1.o)
 .bss.xSuspendedTaskList
                0x20004e28       0x14 embedded-software\mcu-freertos\libfoxbms-os.a(tasks.c.1.o)
 .bss.uxCurrentNumberOfTasks
                0x20004e3c        0x4 embedded-software\mcu-freertos\libfoxbms-os.a(tasks.c.1.o)
 .bss.xTickCount
                0x20004e40        0x4 embedded-software\mcu-freertos\libfoxbms-os.a(tasks.c.1.o)
 .bss.uxTopReadyPriority
                0x20004e44        0x4 embedded-software\mcu-freertos\libfoxbms-os.a(tasks.c.1.o)
 .bss.xSchedulerRunning
                0x20004e48        0x4 embedded-software\mcu-freertos\libfoxbms-os.a(tasks.c.1.o)
 .bss.uxPendedTicks
                0x20004e4c        0x4 embedded-software\mcu-freertos\libfoxbms-os.a(tasks.c.1.o)
 .bss.xYieldPending
                0x20004e50        0x4 embedded-software\mcu-freertos\libfoxbms-os.a(tasks.c.1.o)
 .bss.xNumOfOverflows
                0x20004e54        0x4 embedded-software\mcu-freertos\libfoxbms-os.a(tasks.c.1.o)
 .bss.uxTaskNumber
                0x20004e58        0x4 embedded-software\mcu-freertos\libfoxbms-os.a(tasks.c.1.o)
 .bss.xNextTaskUnblockTime
                0x20004e5c        0x4 embedded-software\mcu-freertos\libfoxbms-os.a(tasks.c.1.o)
 .bss.xIdleTaskHandle
                0x20004e60        0x4 embedded-software\mcu-freertos\libfoxbms-os.a(tasks.c.1.o)
 .bss.uxSchedulerSuspended
                0x20004e64        0x4 embedded-software\mcu-freertos\libfoxbms-os.a(tasks.c.1.o)
 .bss.xActiveTimerList1
                0x20004e68       0x14 embedded-software\mcu-freertos\libfoxbms-os.a(timers.c.1.o)
 .bss.xActiveTimerList2
                0x20004e7c       0x14 embedded-software\mcu-freertos\libfoxbms-os.a(timers.c.1.o)
 .bss.pxCurrentTimerList
                0x20004e90        0x4 embedded-software\mcu-freertos\libfoxbms-os.a(timers.c.1.o)
 .bss.pxOverflowTimerList
                0x20004e94        0x4 embedded-software\mcu-freertos\libfoxbms-os.a(timers.c.1.o)
 .bss.xTimerQueue
                0x20004e98        0x4 embedded-software\mcu-freertos\libfoxbms-os.a(timers.c.1.o)
 .bss.xTimerTaskHandle
                0x20004e9c        0x4 embedded-software\mcu-freertos\libfoxbms-os.a(timers.c.1.o)
 .bss.xLastTime.9214
                0x20004ea0        0x4 embedded-software\mcu-freertos\libfoxbms-os.a(timers.c.1.o)
 .bss.os_boot   0x20004ea4        0x1 embedded-software\mcu-freertos\libfoxbms-os.a(os.c.1.o)
                0x20004ea4                os_boot
 .bss.os_safety_state
                0x20004ea5        0x1 embedded-software\mcu-freertos\libfoxbms-os.a(os.c.1.o)
                0x20004ea5                os_safety_state
 *fill*         0x20004ea6        0x2 
 .bss.os_timer  0x20004ea8        0x8 embedded-software\mcu-freertos\libfoxbms-os.a(os.c.1.o)
                0x20004ea8                os_timer
 .bss.eng_init  0x20004eb0        0x1 embedded-software\mcu-freertos\libfoxbms-os.a(os.c.1.o)
 *fill*         0x20004eb1        0x3 
 .bss.os_schedulerstarttime
                0x20004eb4        0x4 embedded-software\mcu-freertos\libfoxbms-os.a(os.c.1.o)
                0x20004eb4                os_schedulerstarttime
 .bss.appl_handle_tsk_1ms
                0x20004eb8        0x4 embedded-software\mcu-secondary\src\application\libfoxbms-application.a(appltask.c.1.o)
 .bss.appl_handle_tsk_10ms
                0x20004ebc        0x4 embedded-software\mcu-secondary\src\application\libfoxbms-application.a(appltask.c.1.o)
 .bss.appl_handle_tsk_100ms
                0x20004ec0        0x4 embedded-software\mcu-secondary\src\application\libfoxbms-application.a(appltask.c.1.o)
 .bss.data_block_devptr
                0x20004ec4        0x4 embedded-software\mcu-common\src\engine\libfoxbms-common-engine.a(database.c.1.o)
 .bss.data_block_access
                0x20004ec8       0xc0 embedded-software\mcu-common\src\engine\libfoxbms-common-engine.a(database.c.1.o)
 .bss.data_base_mutex
                0x20004f88       0x40 embedded-software\mcu-common\src\engine\libfoxbms-common-engine.a(database.c.1.o)
 .bss.data_state
                0x20004fc8        0x1 embedded-software\mcu-common\src\engine\libfoxbms-common-engine.a(database.c.1.o)
 *fill*         0x20004fc9        0x3 
 .bss.data_block_cellvoltage
                0x20004fcc       0x60 embedded-software\mcu-secondary\src\engine\libfoxbms-engine.a(database_cfg.c.1.o)
                0x20004fcc                data_block_cellvoltage
 .bss.data_block_celltemperature
                0x2000502c       0x30 embedded-software\mcu-secondary\src\engine\libfoxbms-engine.a(database_cfg.c.1.o)
                0x2000502c                data_block_celltemperature
 .bss.data_block_sox
                0x2000505c       0x28 embedded-software\mcu-secondary\src\engine\libfoxbms-engine.a(database_cfg.c.1.o)
                0x2000505c                data_block_sox
 .bss.data_block_control_balancing
                0x20005084       0x48 embedded-software\mcu-secondary\src\engine\libfoxbms-engine.a(database_cfg.c.1.o)
                0x20005084                data_block_control_balancing
 .bss.data_block_feedback_balancing
                0x200050cc       0x20 embedded-software\mcu-secondary\src\engine\libfoxbms-engine.a(database_cfg.c.1.o)
                0x200050cc                data_block_feedback_balancing
 .bss.data_block_current
                0x200050ec       0x70 embedded-software\mcu-secondary\src\engine\libfoxbms-engine.a(database_cfg.c.1.o)
                0x200050ec                data_block_current
 .bss.data_block_adc
                0x2000515c       0x1c embedded-software\mcu-secondary\src\engine\libfoxbms-engine.a(database_cfg.c.1.o)
                0x2000515c                data_block_adc
 .bss.data_block_staterequest
                0x20005178       0x10 embedded-software\mcu-secondary\src\engine\libfoxbms-engine.a(database_cfg.c.1.o)
                0x20005178                data_block_staterequest
 .bss.data_block_minmax
                0x20005188       0x60 embedded-software\mcu-secondary\src\engine\libfoxbms-engine.a(database_cfg.c.1.o)
                0x20005188                data_block_minmax
 .bss.data_block_isometer
                0x200051e8        0xc embedded-software\mcu-secondary\src\engine\libfoxbms-engine.a(database_cfg.c.1.o)
                0x200051e8                data_block_isometer
 .bss.data_block_errors
                0x200051f4       0x48 embedded-software\mcu-secondary\src\engine\libfoxbms-engine.a(database_cfg.c.1.o)
                0x200051f4                data_block_errors
 .bss.data_block_mov_mean
                0x2000523c       0x70 embedded-software\mcu-secondary\src\engine\libfoxbms-engine.a(database_cfg.c.1.o)
                0x2000523c                data_block_mov_mean
 .bss.data_block_slave_control
                0x200052ac       0x24 embedded-software\mcu-secondary\src\engine\libfoxbms-engine.a(database_cfg.c.1.o)
                0x200052ac                data_block_slave_control
 .bss.data_block_open_wire
                0x200052d0       0x30 embedded-software\mcu-secondary\src\engine\libfoxbms-engine.a(database_cfg.c.1.o)
                0x200052d0                data_block_open_wire
 .bss.data_block_ltc_diagnosis
                0x20005300       0x2c embedded-software\mcu-secondary\src\engine\libfoxbms-engine.a(database_cfg.c.1.o)
                0x20005300                data_block_ltc_diagnosis
 .bss.data_block_ltc_adc_accuracy
                0x2000532c       0x10 embedded-software\mcu-secondary\src\engine\libfoxbms-engine.a(database_cfg.c.1.o)
                0x2000532c                data_block_ltc_adc_accuracy
 .bss.eng_handle_engine
                0x2000533c        0x4 embedded-software\mcu-secondary\src\engine\libfoxbms-engine.a(enginetask_cfg.c.1.o)
 .bss.eng_handle_tsk_1ms
                0x20005340        0x4 embedded-software\mcu-secondary\src\engine\libfoxbms-engine.a(enginetask_cfg.c.1.o)
 .bss.eng_handle_tsk_10ms
                0x20005344        0x4 embedded-software\mcu-secondary\src\engine\libfoxbms-engine.a(enginetask_cfg.c.1.o)
 .bss.eng_handle_tsk_100ms
                0x20005348        0x4 embedded-software\mcu-secondary\src\engine\libfoxbms-engine.a(enginetask_cfg.c.1.o)
 .bss.eng_handle_tsk_diagnosis
                0x2000534c        0x4 embedded-software\mcu-secondary\src\engine\libfoxbms-engine.a(enginetask_cfg.c.1.o)
 .bss.eng_handle_tsk_eventhandler
                0x20005350        0x4 embedded-software\mcu-secondary\src\engine\libfoxbms-engine.a(enginetask_cfg.c.1.o)
 .bss.data_queueID
                0x20005354        0x4 embedded-software\mcu-secondary\src\engine\libfoxbms-engine.a(enginetask_cfg.c.1.o)
                0x20005354                data_queueID
 .bss.diag      0x20005358      0x330 embedded-software\mcu-secondary\src\engine\libfoxbms-engine.a(diag.c.1.o)
 .bss.diag_devptr
                0x20005688        0x4 embedded-software\mcu-secondary\src\engine\libfoxbms-engine.a(diag.c.1.o)
 .bss.diagsysmonTimestamp
                0x2000568c        0x4 embedded-software\mcu-secondary\src\engine\libfoxbms-engine.a(diag.c.1.o)
 .bss.diag_locked
                0x20005690        0x1 embedded-software\mcu-secondary\src\engine\libfoxbms-engine.a(diag.c.1.o)
 *fill*         0x20005691        0x3 
 .bss.diag_sysmon
                0x20005694       0x48 embedded-software\mcu-secondary\src\engine\libfoxbms-engine.a(diag.c.1.o)
                0x20005694                diag_sysmon
 .bss.diag_sysmon_last
                0x200056dc       0x48 embedded-software\mcu-secondary\src\engine\libfoxbms-engine.a(diag.c.1.o)
                0x200056dc                diag_sysmon_last
 .bss.diag_sysmon_cnt
                0x20005724       0x24 embedded-software\mcu-secondary\src\engine\libfoxbms-engine.a(diag.c.1.o)
                0x20005724                diag_sysmon_cnt
 .bss.diag_fc   0x20005748       0x10 embedded-software\mcu-secondary\src\engine\libfoxbms-engine.a(diag.c.1.o)
                0x20005748                diag_fc
 .bss.counter.10099
                0x20005758        0x1 embedded-software\mcu-secondary\src\engine\libfoxbms-engine.a(enginetask.c.1.o)
 *fill*         0x20005759        0x3 
 .bss.adc_tab   0x2000575c       0x1c embedded-software\mcu-secondary\src\module\libfoxbms-module.a(adc_ex.c.1.o)
 .bss.adc_conversion_state
                0x20005778        0x1 embedded-software\mcu-secondary\src\module\libfoxbms-module.a(adc_ex.c.1.o)
 .bss.toggle.8155
                0x20005779        0x1 embedded-software\mcu-secondary\src\module\libfoxbms-module.a(timer.c.1.o)
 .bss.canNode0_listenonly_mode
                0x2000577a        0x1 embedded-software\mcu-common\src\module\libfoxbms-common-module.a(can.c.1.o)
                0x2000577a                canNode0_listenonly_mode
 .bss.canNode1_listenonly_mode
                0x2000577b        0x1 embedded-software\mcu-common\src\module\libfoxbms-common-module.a(can.c.1.o)
                0x2000577b                canNode1_listenonly_mode
 .bss.can0_txbufferelements
                0x2000577c      0x200 embedded-software\mcu-common\src\module\libfoxbms-common-module.a(can.c.1.o)
                0x2000577c                can0_txbufferelements
 .bss.can0_rxbufferelements
                0x2000597c      0x100 embedded-software\mcu-common\src\module\libfoxbms-common-module.a(can.c.1.o)
                0x2000597c                can0_rxbufferelements
 .bss.can0_fastLinkIndex
                0x20005a7c        0x3 embedded-software\mcu-common\src\module\libfoxbms-common-module.a(can.c.1.o)
                0x20005a7c                can0_fastLinkIndex
 *fill*         0x20005a7f        0x1 
 .bss.CAN0_errorStruct
                0x20005a80       0x1c embedded-software\mcu-common\src\module\libfoxbms-common-module.a(can.c.1.o)
                0x20005a80                CAN0_errorStruct
 .bss.fastLinkBuffer
                0x20005a9c        0x8 embedded-software\mcu-common\src\module\libfoxbms-common-module.a(can.c.1.o)
                0x20005a9c                fastLinkBuffer
 .bss.sReceiveStruct0
                0x20005aa4       0x24 embedded-software\mcu-common\src\module\libfoxbms-common-module.a(can.c.1.o)
                0x20005aa4                sReceiveStruct0
 .bss.filterNumber.9405
                0x20005ac8        0x1 embedded-software\mcu-common\src\module\libfoxbms-common-module.a(can.c.1.o)
 .bss.retVal.9438
                0x20005ac9        0x1 embedded-software\mcu-common\src\module\libfoxbms-common-module.a(can.c.1.o)
 *fill*         0x20005aca        0x2 
 .bss.chk_status
                0x20005acc        0xc embedded-software\mcu-common\src\module\libfoxbms-common-module.a(chksum.c.1.o)
                0x20005acc                chk_status
 .bss.ltc_used_cells_index
                0x20005ad8        0x1 embedded-software\mcu-common\src\module\libfoxbms-common-module.a(ltc.c.1.o)
 *fill*         0x20005ad9        0x3 
 .bss.ltc_cellvoltage
                0x20005adc       0x30 embedded-software\mcu-common\src\module\libfoxbms-common-module.a(ltc.c.1.o)
 .bss.ltc_celltemperature
                0x20005b0c       0x18 embedded-software\mcu-common\src\module\libfoxbms-common-module.a(ltc.c.1.o)
 .bss.ltc_minmax
                0x20005b24       0x30 embedded-software\mcu-common\src\module\libfoxbms-common-module.a(ltc.c.1.o)
 .bss.ltc_balancing_feedback
                0x20005b54       0x10 embedded-software\mcu-common\src\module\libfoxbms-common-module.a(ltc.c.1.o)
 .bss.ltc_user_mux
                0x20005b64       0x2c embedded-software\mcu-common\src\module\libfoxbms-common-module.a(ltc.c.1.o)
 .bss.ltc_balancing_control
                0x20005b90       0x24 embedded-software\mcu-common\src\module\libfoxbms-common-module.a(ltc.c.1.o)
 .bss.ltc_slave_control
                0x20005bb4       0x24 embedded-software\mcu-common\src\module\libfoxbms-common-module.a(ltc.c.1.o)
 .bss.LTC_ErrorTable
                0x20005bd8        0x5 embedded-software\mcu-common\src\module\libfoxbms-common-module.a(ltc.c.1.o)
 *fill*         0x20005bdd        0x3 
 .bss.ltc_RXPECbuffer
                0x20005be0        0xc embedded-software\mcu-common\src\module\libfoxbms-common-module.a(ltc.c.1.o)
 .bss.ltc_TXPECbuffer
                0x20005bec        0xc embedded-software\mcu-common\src\module\libfoxbms-common-module.a(ltc.c.1.o)
 .bss.ltc_TXBuffer
                0x20005bf8        0x6 embedded-software\mcu-common\src\module\libfoxbms-common-module.a(ltc.c.1.o)
 *fill*         0x20005bfe        0x2 
 .bss.ltc_TXBufferClock
                0x20005c00        0xd embedded-software\mcu-common\src\module\libfoxbms-common-module.a(ltc.c.1.o)
 *fill*         0x20005c0d        0x3 
 .bss.ltc_TXPECBufferClock
                0x20005c10        0xd embedded-software\mcu-common\src\module\libfoxbms-common-module.a(ltc.c.1.o)
 *fill*         0x20005c1d        0x3 
 .bss.mcu_unique_deviceID
                0x20005c20       0x10 embedded-software\mcu-common\src\module\libfoxbms-common-module.a(mcu.c.1.o)
                0x20005c20                mcu_unique_deviceID
 .bss.hrtc      0x20005c30       0x20 embedded-software\mcu-common\src\module\libfoxbms-common-module.a(rtc.c.1.o)
                0x20005c30                hrtc
 .bss.spi_state
                0x20005c50        0x2 embedded-software\mcu-common\src\module\libfoxbms-common-module.a(spi.c.1.o)
 .bss.led_counter.8081
                0x20005c52        0x2 embedded-software\mcu-common\src\module\libfoxbms-common-module.a(led.c.1.o)
 .bss.led_0_duty_cycle.8086
                0x20005c54        0x1 embedded-software\mcu-common\src\module\libfoxbms-common-module.a(led.c.1.o)
 .bss.led_1_duty_cycle.8087
                0x20005c55        0x1 embedded-software\mcu-common\src\module\libfoxbms-common-module.a(led.c.1.o)
 .bss.cycle_time.8088
                0x20005c56        0x2 embedded-software\mcu-common\src\module\libfoxbms-common-module.a(led.c.1.o)
 .bss.hiwdg     0x20005c58        0xc embedded-software\mcu-common\src\module\libfoxbms-common-module.a(wdg.c.1.o)
                0x20005c58                hiwdg
 .bss.ilck_interlock_state
                0x20005c64        0x2 embedded-software\mcu-common\src\module\libfoxbms-common-module.a(interlock_cfg.c.1.o)
                0x20005c64                ilck_interlock_state
 *fill*         0x20005c66        0x2 
 .bss.uwTick    0x20005c68        0x4 embedded-software\mcu-hal\STM32F4xx_HAL_Driver\libfoxbms-stmhal.a(stm32f4xx_hal.c.1.o)
                0x20005c68                uwTick
 *(COMMON)
                0x20005c6c                . = ALIGN (0x4)
                0x20005c6c                _ebss = .
                0x20005c6c                __bss_end__ = _ebss

._user_heap_stack
                0x20005c6c      0x600
                0x20005c6c                . = ALIGN (0x4)
                0x20005c6c                PROVIDE (end, .)
                0x20005c6c                PROVIDE (_end, .)
                0x20005e6c                . = (. + _Min_Heap_Size)
 *fill*         0x20005c6c      0x200 
                0x2000626c                . = (. + _Min_Stack_Size)
 *fill*         0x20005e6c      0x400 
                0x2000626c                . = ALIGN (0x4)

/DISCARD/
 libc.a(*)
 libm.a(*)
 libgcc.a(*)

.ARM.attributes
                0x00000000       0x2e
 *(.ARM.attributes)
 .ARM.attributes
                0x00000000       0x22 c:/foxconda/library/bin/../lib/gcc/arm-none-eabi/4.9.3/armv7e-m/softfp/crti.o
 .ARM.attributes
                0x00000022       0x32 c:/foxconda/library/bin/../lib/gcc/arm-none-eabi/4.9.3/armv7e-m/softfp/crtbegin.o
 .ARM.attributes
                0x00000054       0x37 embedded-software\mcu-secondary\src\general\config\nvic_cfg.c.1.o
 .ARM.attributes
                0x0000008b       0x37 embedded-software\mcu-secondary\src\general\config\stm32f4xx_hal_msp.c.1.o
 .ARM.attributes
                0x000000c2       0x37 embedded-software\mcu-secondary\src\general\config\stm32f4xx_it.c.1.o
 .ARM.attributes
                0x000000f9       0x37 embedded-software\mcu-secondary\src\general\config\system_stm32f4xx.c.1.o
 .ARM.attributes
                0x00000130       0x37 embedded-software\mcu-secondary\src\general\main.c.1.o
 .ARM.attributes
                0x00000167       0x37 embedded-software\mcu-secondary\src\general\nvic.c.1.o
 .ARM.attributes
                0x0000019e       0x37 embedded-software\mcu-secondary\src\general\version.c.1.o
 .ARM.attributes
                0x000001d5       0x21 embedded-software\mcu-secondary\src\general\config\startup_stm32f429xx.o
 .ARM.attributes
                0x000001f6       0x37 embedded-software\mcu-freertos\libfoxbms-os.a(cmsis_os.c.1.o)
 .ARM.attributes
                0x0000022d       0x37 embedded-software\mcu-freertos\libfoxbms-os.a(port.c.1.o)
 .ARM.attributes
                0x00000264       0x37 embedded-software\mcu-freertos\libfoxbms-os.a(heap_4.c.1.o)
 .ARM.attributes
                0x0000029b       0x37 embedded-software\mcu-freertos\libfoxbms-os.a(queue.c.1.o)
 .ARM.attributes
                0x000002d2       0x37 embedded-software\mcu-freertos\libfoxbms-os.a(tasks.c.1.o)
 .ARM.attributes
                0x00000309       0x37 embedded-software\mcu-freertos\libfoxbms-os.a(timers.c.1.o)
 .ARM.attributes
                0x00000340       0x37 embedded-software\mcu-freertos\libfoxbms-os.a(os.c.1.o)
 .ARM.attributes
                0x00000377       0x37 embedded-software\mcu-freertos\libfoxbms-os.a(list.c.1.o)
 .ARM.attributes
                0x000003ae       0x37 embedded-software\mcu-secondary\src\application\libfoxbms-application.a(appltask.c.1.o)
 .ARM.attributes
                0x000003e5       0x37 embedded-software\mcu-secondary\src\application\libfoxbms-application.a(appltask_cfg.c.1.o)
 .ARM.attributes
                0x0000041c       0x37 embedded-software\mcu-secondary\src\application\libfoxbms-application.a(bms.c.1.o)
 .ARM.attributes
                0x00000453       0x37 embedded-software\mcu-common\src\engine\libfoxbms-common-engine.a(database.c.1.o)
 .ARM.attributes
                0x0000048a       0x37 embedded-software\mcu-secondary\src\engine\libfoxbms-engine.a(database_cfg.c.1.o)
 .ARM.attributes
                0x000004c1       0x37 embedded-software\mcu-secondary\src\engine\libfoxbms-engine.a(diag_cfg.c.1.o)
 .ARM.attributes
                0x000004f8       0x37 embedded-software\mcu-secondary\src\engine\libfoxbms-engine.a(enginetask_cfg.c.1.o)
 .ARM.attributes
                0x0000052f       0x37 embedded-software\mcu-secondary\src\engine\libfoxbms-engine.a(diag.c.1.o)
 .ARM.attributes
                0x00000566       0x37 embedded-software\mcu-secondary\src\engine\libfoxbms-engine.a(enginetask.c.1.o)
 .ARM.attributes
                0x0000059d       0x37 embedded-software\mcu-secondary\src\engine\libfoxbms-engine.a(sys.c.1.o)
 .ARM.attributes
                0x000005d4       0x37 embedded-software\mcu-secondary\src\module\libfoxbms-module.a(adc_ex.c.1.o)
 .ARM.attributes
                0x0000060b       0x37 embedded-software\mcu-secondary\src\module\libfoxbms-module.a(adc_cfg.c.1.o)
 .ARM.attributes
                0x00000642       0x37 embedded-software\mcu-secondary\src\module\libfoxbms-module.a(bkpsram_cfg.c.1.o)
 .ARM.attributes
                0x00000679       0x37 embedded-software\mcu-secondary\src\module\libfoxbms-module.a(timer.c.1.o)
 .ARM.attributes
                0x000006b0       0x37 embedded-software\mcu-secondary\src\module\libfoxbms-module.a(timer_cfg.c.1.o)
 .ARM.attributes
                0x000006e7       0x37 embedded-software\mcu-common\src\module\libfoxbms-common-module.a(adc.c.1.o)
 .ARM.attributes
                0x0000071e       0x37 embedded-software\mcu-common\src\module\libfoxbms-common-module.a(can.c.1.o)
 .ARM.attributes
                0x00000755       0x37 embedded-software\mcu-common\src\module\libfoxbms-common-module.a(chksum.c.1.o)
 .ARM.attributes
                0x0000078c       0x37 embedded-software\mcu-common\src\module\libfoxbms-common-module.a(dma.c.1.o)
 .ARM.attributes
                0x000007c3       0x37 embedded-software\mcu-common\src\module\libfoxbms-common-module.a(interlock.c.1.o)
 .ARM.attributes
                0x000007fa       0x37 embedded-software\mcu-common\src\module\libfoxbms-common-module.a(io.c.1.o)
 .ARM.attributes
                0x00000831       0x37 embedded-software\mcu-common\src\module\libfoxbms-common-module.a(portcheck.c.1.o)
 .ARM.attributes
                0x00000868       0x37 embedded-software\mcu-common\src\module\libfoxbms-common-module.a(meas.c.1.o)
 .ARM.attributes
                0x0000089f       0x37 embedded-software\mcu-common\src\module\libfoxbms-common-module.a(ltc.c.1.o)
 .ARM.attributes
                0x000008d6       0x37 embedded-software\mcu-common\src\module\libfoxbms-common-module.a(ltc_pec.c.1.o)
 .ARM.attributes
                0x0000090d       0x37 embedded-software\mcu-common\src\module\libfoxbms-common-module.a(mcu.c.1.o)
 .ARM.attributes
                0x00000944       0x37 embedded-software\mcu-common\src\module\libfoxbms-common-module.a(rcc.c.1.o)
 .ARM.attributes
                0x0000097b       0x37 embedded-software\mcu-common\src\module\libfoxbms-common-module.a(rtc.c.1.o)
 .ARM.attributes
                0x000009b2       0x37 embedded-software\mcu-common\src\module\libfoxbms-common-module.a(bkpsram.c.1.o)
 .ARM.attributes
                0x000009e9       0x37 embedded-software\mcu-common\src\module\libfoxbms-common-module.a(spi.c.1.o)
 .ARM.attributes
                0x00000a20       0x37 embedded-software\mcu-common\src\module\libfoxbms-common-module.a(led.c.1.o)
 .ARM.attributes
                0x00000a57       0x37 embedded-software\mcu-common\src\module\libfoxbms-common-module.a(wdg.c.1.o)
 .ARM.attributes
                0x00000a8e       0x37 embedded-software\mcu-common\src\module\libfoxbms-common-module.a(dma_cfg.c.1.o)
 .ARM.attributes
                0x00000ac5       0x37 embedded-software\mcu-common\src\module\libfoxbms-common-module.a(interlock_cfg.c.1.o)
 .ARM.attributes
                0x00000afc       0x37 embedded-software\mcu-common\src\module\libfoxbms-common-module.a(io_cfg.c.1.o)
 .ARM.attributes
                0x00000b33       0x37 embedded-software\mcu-common\src\module\libfoxbms-common-module.a(ltc_cfg.c.1.o)
 .ARM.attributes
                0x00000b6a       0x37 embedded-software\mcu-common\src\module\libfoxbms-common-module.a(rcc_cfg.c.1.o)
 .ARM.attributes
                0x00000ba1       0x37 embedded-software\mcu-common\src\module\libfoxbms-common-module.a(rtc_cfg.c.1.o)
 .ARM.attributes
                0x00000bd8       0x37 embedded-software\mcu-common\src\module\libfoxbms-common-module.a(can_cfg.c.1.o)
 .ARM.attributes
                0x00000c0f       0x37 embedded-software\mcu-common\src\module\libfoxbms-common-module.a(spi_cfg.c.1.o)
 .ARM.attributes
                0x00000c46       0x37 embedded-software\mcu-hal\STM32F4xx_HAL_Driver\libfoxbms-stmhal.a(stm32f4xx_hal.c.1.o)
 .ARM.attributes
                0x00000c7d       0x37 embedded-software\mcu-hal\STM32F4xx_HAL_Driver\libfoxbms-stmhal.a(stm32f4xx_hal_adc.c.1.o)
 .ARM.attributes
                0x00000cb4       0x37 embedded-software\mcu-hal\STM32F4xx_HAL_Driver\libfoxbms-stmhal.a(stm32f4xx_hal_adc_ex.c.1.o)
 .ARM.attributes
                0x00000ceb       0x37 embedded-software\mcu-hal\STM32F4xx_HAL_Driver\libfoxbms-stmhal.a(stm32f4xx_hal_can.c.1.o)
 .ARM.attributes
                0x00000d22       0x37 embedded-software\mcu-hal\STM32F4xx_HAL_Driver\libfoxbms-stmhal.a(stm32f4xx_hal_cortex.c.1.o)
 .ARM.attributes
                0x00000d59       0x37 embedded-software\mcu-hal\STM32F4xx_HAL_Driver\libfoxbms-stmhal.a(stm32f4xx_hal_dma.c.1.o)
 .ARM.attributes
                0x00000d90       0x37 embedded-software\mcu-hal\STM32F4xx_HAL_Driver\libfoxbms-stmhal.a(stm32f4xx_hal_gpio.c.1.o)
 .ARM.attributes
                0x00000dc7       0x37 embedded-software\mcu-hal\STM32F4xx_HAL_Driver\libfoxbms-stmhal.a(stm32f4xx_hal_iwdg.c.1.o)
 .ARM.attributes
                0x00000dfe       0x37 embedded-software\mcu-hal\STM32F4xx_HAL_Driver\libfoxbms-stmhal.a(stm32f4xx_hal_pwr.c.1.o)
 .ARM.attributes
                0x00000e35       0x37 embedded-software\mcu-hal\STM32F4xx_HAL_Driver\libfoxbms-stmhal.a(stm32f4xx_hal_pwr_ex.c.1.o)
 .ARM.attributes
                0x00000e6c       0x37 embedded-software\mcu-hal\STM32F4xx_HAL_Driver\libfoxbms-stmhal.a(stm32f4xx_hal_rcc.c.1.o)
 .ARM.attributes
                0x00000ea3       0x37 embedded-software\mcu-hal\STM32F4xx_HAL_Driver\libfoxbms-stmhal.a(stm32f4xx_hal_rcc_ex.c.1.o)
 .ARM.attributes
                0x00000eda       0x37 embedded-software\mcu-hal\STM32F4xx_HAL_Driver\libfoxbms-stmhal.a(stm32f4xx_hal_rtc.c.1.o)
 .ARM.attributes
                0x00000f11       0x37 embedded-software\mcu-hal\STM32F4xx_HAL_Driver\libfoxbms-stmhal.a(stm32f4xx_hal_rtc_ex.c.1.o)
 .ARM.attributes
                0x00000f48       0x37 embedded-software\mcu-hal\STM32F4xx_HAL_Driver\libfoxbms-stmhal.a(stm32f4xx_hal_spi.c.1.o)
 .ARM.attributes
                0x00000f7f       0x22 c:/foxconda/library/bin/../lib/gcc/arm-none-eabi/4.9.3/armv7e-m/softfp\libgcc.a(_arm_addsubdf3.o)
 .ARM.attributes
                0x00000fa1       0x22 c:/foxconda/library/bin/../lib/gcc/arm-none-eabi/4.9.3/armv7e-m/softfp\libgcc.a(_arm_muldivdf3.o)
 .ARM.attributes
                0x00000fc3       0x22 c:/foxconda/library/bin/../lib/gcc/arm-none-eabi/4.9.3/armv7e-m/softfp\libgcc.a(_arm_fixunsdfsi.o)
 .ARM.attributes
                0x00000fe5       0x22 c:/foxconda/library/bin/../lib/gcc/arm-none-eabi/4.9.3/armv7e-m/softfp\libgcc.a(_arm_truncdfsf2.o)
 .ARM.attributes
                0x00001007       0x32 c:/foxconda/library/bin/../lib/gcc/arm-none-eabi/4.9.3/../../../../arm-none-eabi/lib/armv7e-m/softfp\libc_nano.a(lib_a-init.o)
 .ARM.attributes
                0x00001039       0x32 c:/foxconda/library/bin/../lib/gcc/arm-none-eabi/4.9.3/../../../../arm-none-eabi/lib/armv7e-m/softfp\libc_nano.a(lib_a-memcpy.o)
 .ARM.attributes
                0x0000106b       0x32 c:/foxconda/library/bin/../lib/gcc/arm-none-eabi/4.9.3/../../../../arm-none-eabi/lib/armv7e-m/softfp\libc_nano.a(lib_a-memset.o)
 .ARM.attributes
                0x0000109d       0x22 c:/foxconda/library/bin/../lib/gcc/arm-none-eabi/4.9.3/armv7e-m/softfp/crtn.o
OUTPUT(D:\itri\foxBMS\src\foxBMS-setup\build\secondary\embedded-software\mcu-secondary\src\general\foxbms.elf elf32-littlearm)

.debug_info     0x00000000    0x29eda
 .debug_info    0x00000000      0x40f embedded-software\mcu-secondary\src\general\config\nvic_cfg.c.1.o
 .debug_info    0x0000040f     0x1063 embedded-software\mcu-secondary\src\general\config\stm32f4xx_hal_msp.c.1.o
 .debug_info    0x00001472     0x15ea embedded-software\mcu-secondary\src\general\config\stm32f4xx_it.c.1.o
 .debug_info    0x00002a5c      0x8a8 embedded-software\mcu-secondary\src\general\config\system_stm32f4xx.c.1.o
 .debug_info    0x00003304     0x1679 embedded-software\mcu-secondary\src\general\main.c.1.o
 .debug_info    0x0000497d      0x742 embedded-software\mcu-secondary\src\general\nvic.c.1.o
 .debug_info    0x000050bf      0x31c embedded-software\mcu-secondary\src\general\version.c.1.o
 .debug_info    0x000053db       0xa3 embedded-software\mcu-secondary\src\general\config\startup_stm32f429xx.o
 .debug_info    0x0000547e     0x125f embedded-software\mcu-freertos\libfoxbms-os.a(cmsis_os.c.1.o)
 .debug_info    0x000066dd      0x6a1 embedded-software\mcu-freertos\libfoxbms-os.a(port.c.1.o)
 .debug_info    0x00006d7e      0x5ad embedded-software\mcu-freertos\libfoxbms-os.a(heap_4.c.1.o)
 .debug_info    0x0000732b     0x122d embedded-software\mcu-freertos\libfoxbms-os.a(queue.c.1.o)
 .debug_info    0x00008558     0x1b57 embedded-software\mcu-freertos\libfoxbms-os.a(tasks.c.1.o)
 .debug_info    0x0000a0af      0xc12 embedded-software\mcu-freertos\libfoxbms-os.a(timers.c.1.o)
 .debug_info    0x0000acc1      0x88f embedded-software\mcu-freertos\libfoxbms-os.a(os.c.1.o)
 .debug_info    0x0000b550      0x2b9 embedded-software\mcu-freertos\libfoxbms-os.a(list.c.1.o)
 .debug_info    0x0000b809      0x6b2 embedded-software\mcu-secondary\src\application\libfoxbms-application.a(appltask.c.1.o)
 .debug_info    0x0000bebb      0x538 embedded-software\mcu-secondary\src\application\libfoxbms-application.a(appltask_cfg.c.1.o)
 .debug_info    0x0000c3f3      0xd2e embedded-software\mcu-secondary\src\application\libfoxbms-application.a(bms.c.1.o)
 .debug_info    0x0000d121      0x81a embedded-software\mcu-common\src\engine\libfoxbms-common-engine.a(database.c.1.o)
 .debug_info    0x0000d93b      0xd34 embedded-software\mcu-secondary\src\engine\libfoxbms-engine.a(database_cfg.c.1.o)
 .debug_info    0x0000e66f      0xe39 embedded-software\mcu-secondary\src\engine\libfoxbms-engine.a(diag_cfg.c.1.o)
 .debug_info    0x0000f4a8      0x659 embedded-software\mcu-secondary\src\engine\libfoxbms-engine.a(enginetask_cfg.c.1.o)
 .debug_info    0x0000fb01     0x147a embedded-software\mcu-secondary\src\engine\libfoxbms-engine.a(diag.c.1.o)
 .debug_info    0x00010f7b      0x3a3 embedded-software\mcu-secondary\src\engine\libfoxbms-engine.a(enginetask.c.1.o)
 .debug_info    0x0001131e      0x7a0 embedded-software\mcu-secondary\src\engine\libfoxbms-engine.a(sys.c.1.o)
 .debug_info    0x00011abe      0x73a embedded-software\mcu-secondary\src\module\libfoxbms-module.a(adc_ex.c.1.o)
 .debug_info    0x000121f8      0x598 embedded-software\mcu-secondary\src\module\libfoxbms-module.a(adc_cfg.c.1.o)
 .debug_info    0x00012790      0x7a2 embedded-software\mcu-secondary\src\module\libfoxbms-module.a(bkpsram_cfg.c.1.o)
 .debug_info    0x00012f32      0x995 embedded-software\mcu-secondary\src\module\libfoxbms-module.a(timer.c.1.o)
 .debug_info    0x000138c7      0x5a5 embedded-software\mcu-secondary\src\module\libfoxbms-module.a(timer_cfg.c.1.o)
 .debug_info    0x00013e6c      0x79d embedded-software\mcu-common\src\module\libfoxbms-common-module.a(adc.c.1.o)
 .debug_info    0x00014609     0x17df embedded-software\mcu-common\src\module\libfoxbms-common-module.a(can.c.1.o)
 .debug_info    0x00015de8      0x7d8 embedded-software\mcu-common\src\module\libfoxbms-common-module.a(chksum.c.1.o)
 .debug_info    0x000165c0      0x543 embedded-software\mcu-common\src\module\libfoxbms-common-module.a(dma.c.1.o)
 .debug_info    0x00016b03      0xc87 embedded-software\mcu-common\src\module\libfoxbms-common-module.a(interlock.c.1.o)
 .debug_info    0x0001778a      0xa93 embedded-software\mcu-common\src\module\libfoxbms-common-module.a(io.c.1.o)
 .debug_info    0x0001821d      0x315 embedded-software\mcu-common\src\module\libfoxbms-common-module.a(portcheck.c.1.o)
 .debug_info    0x00018532      0x30d embedded-software\mcu-common\src\module\libfoxbms-common-module.a(meas.c.1.o)
 .debug_info    0x0001883f     0x2a4d embedded-software\mcu-common\src\module\libfoxbms-common-module.a(ltc.c.1.o)
 .debug_info    0x0001b28c      0x11d embedded-software\mcu-common\src\module\libfoxbms-common-module.a(ltc_pec.c.1.o)
 .debug_info    0x0001b3a9      0x816 embedded-software\mcu-common\src\module\libfoxbms-common-module.a(mcu.c.1.o)
 .debug_info    0x0001bbbf      0x3d3 embedded-software\mcu-common\src\module\libfoxbms-common-module.a(rcc.c.1.o)
 .debug_info    0x0001bf92      0x7ce embedded-software\mcu-common\src\module\libfoxbms-common-module.a(rtc.c.1.o)
 .debug_info    0x0001c760      0x5b1 embedded-software\mcu-common\src\module\libfoxbms-common-module.a(bkpsram.c.1.o)
 .debug_info    0x0001cd11      0xca0 embedded-software\mcu-common\src\module\libfoxbms-common-module.a(spi.c.1.o)
 .debug_info    0x0001d9b1      0x369 embedded-software\mcu-common\src\module\libfoxbms-common-module.a(led.c.1.o)
 .debug_info    0x0001dd1a      0x213 embedded-software\mcu-common\src\module\libfoxbms-common-module.a(wdg.c.1.o)
 .debug_info    0x0001df2d      0x5e8 embedded-software\mcu-common\src\module\libfoxbms-common-module.a(dma_cfg.c.1.o)
 .debug_info    0x0001e515      0x3b1 embedded-software\mcu-common\src\module\libfoxbms-common-module.a(interlock_cfg.c.1.o)
 .debug_info    0x0001e8c6      0x5b1 embedded-software\mcu-common\src\module\libfoxbms-common-module.a(io_cfg.c.1.o)
 .debug_info    0x0001ee77      0x2e4 embedded-software\mcu-common\src\module\libfoxbms-common-module.a(ltc_cfg.c.1.o)
 .debug_info    0x0001f15b      0x210 embedded-software\mcu-common\src\module\libfoxbms-common-module.a(rcc_cfg.c.1.o)
 .debug_info    0x0001f36b      0x417 embedded-software\mcu-common\src\module\libfoxbms-common-module.a(rtc_cfg.c.1.o)
 .debug_info    0x0001f782      0x917 embedded-software\mcu-common\src\module\libfoxbms-common-module.a(can_cfg.c.1.o)
 .debug_info    0x00020099      0x5e3 embedded-software\mcu-common\src\module\libfoxbms-common-module.a(spi_cfg.c.1.o)
 .debug_info    0x0002067c      0x925 embedded-software\mcu-hal\STM32F4xx_HAL_Driver\libfoxbms-stmhal.a(stm32f4xx_hal.c.1.o)
 .debug_info    0x00020fa1      0xc31 embedded-software\mcu-hal\STM32F4xx_HAL_Driver\libfoxbms-stmhal.a(stm32f4xx_hal_adc.c.1.o)
 .debug_info    0x00021bd2      0xa3d embedded-software\mcu-hal\STM32F4xx_HAL_Driver\libfoxbms-stmhal.a(stm32f4xx_hal_adc_ex.c.1.o)
 .debug_info    0x0002260f      0xa87 embedded-software\mcu-hal\STM32F4xx_HAL_Driver\libfoxbms-stmhal.a(stm32f4xx_hal_can.c.1.o)
 .debug_info    0x00023096      0xd4e embedded-software\mcu-hal\STM32F4xx_HAL_Driver\libfoxbms-stmhal.a(stm32f4xx_hal_cortex.c.1.o)
 .debug_info    0x00023de4      0x8be embedded-software\mcu-hal\STM32F4xx_HAL_Driver\libfoxbms-stmhal.a(stm32f4xx_hal_dma.c.1.o)
 .debug_info    0x000246a2      0x6f6 embedded-software\mcu-hal\STM32F4xx_HAL_Driver\libfoxbms-stmhal.a(stm32f4xx_hal_gpio.c.1.o)
 .debug_info    0x00024d98      0x206 embedded-software\mcu-hal\STM32F4xx_HAL_Driver\libfoxbms-stmhal.a(stm32f4xx_hal_iwdg.c.1.o)
 .debug_info    0x00024f9e      0x842 embedded-software\mcu-hal\STM32F4xx_HAL_Driver\libfoxbms-stmhal.a(stm32f4xx_hal_pwr.c.1.o)
 .debug_info    0x000257e0      0x84f embedded-software\mcu-hal\STM32F4xx_HAL_Driver\libfoxbms-stmhal.a(stm32f4xx_hal_pwr_ex.c.1.o)
 .debug_info    0x0002602f      0xb0a embedded-software\mcu-hal\STM32F4xx_HAL_Driver\libfoxbms-stmhal.a(stm32f4xx_hal_rcc.c.1.o)
 .debug_info    0x00026b39      0x86e embedded-software\mcu-hal\STM32F4xx_HAL_Driver\libfoxbms-stmhal.a(stm32f4xx_hal_rcc_ex.c.1.o)
 .debug_info    0x000273a7      0xb06 embedded-software\mcu-hal\STM32F4xx_HAL_Driver\libfoxbms-stmhal.a(stm32f4xx_hal_rtc.c.1.o)
 .debug_info    0x00027ead      0xe3f embedded-software\mcu-hal\STM32F4xx_HAL_Driver\libfoxbms-stmhal.a(stm32f4xx_hal_rtc_ex.c.1.o)
 .debug_info    0x00028cec     0x11ee embedded-software\mcu-hal\STM32F4xx_HAL_Driver\libfoxbms-stmhal.a(stm32f4xx_hal_spi.c.1.o)

.debug_abbrev   0x00000000     0x6a28
 .debug_abbrev  0x00000000       0xb6 embedded-software\mcu-secondary\src\general\config\nvic_cfg.c.1.o
 .debug_abbrev  0x000000b6      0x1ea embedded-software\mcu-secondary\src\general\config\stm32f4xx_hal_msp.c.1.o
 .debug_abbrev  0x000002a0      0x214 embedded-software\mcu-secondary\src\general\config\stm32f4xx_it.c.1.o
 .debug_abbrev  0x000004b4      0x12f embedded-software\mcu-secondary\src\general\config\system_stm32f4xx.c.1.o
 .debug_abbrev  0x000005e3      0x18e embedded-software\mcu-secondary\src\general\main.c.1.o
 .debug_abbrev  0x00000771      0x134 embedded-software\mcu-secondary\src\general\nvic.c.1.o
 .debug_abbrev  0x000008a5       0xa5 embedded-software\mcu-secondary\src\general\version.c.1.o
 .debug_abbrev  0x0000094a       0x12 embedded-software\mcu-secondary\src\general\config\startup_stm32f429xx.o
 .debug_abbrev  0x0000095c      0x2b3 embedded-software\mcu-freertos\libfoxbms-os.a(cmsis_os.c.1.o)
 .debug_abbrev  0x00000c0f      0x20b embedded-software\mcu-freertos\libfoxbms-os.a(port.c.1.o)
 .debug_abbrev  0x00000e1a      0x186 embedded-software\mcu-freertos\libfoxbms-os.a(heap_4.c.1.o)
 .debug_abbrev  0x00000fa0      0x23a embedded-software\mcu-freertos\libfoxbms-os.a(queue.c.1.o)
 .debug_abbrev  0x000011da      0x2da embedded-software\mcu-freertos\libfoxbms-os.a(tasks.c.1.o)
 .debug_abbrev  0x000014b4      0x1b2 embedded-software\mcu-freertos\libfoxbms-os.a(timers.c.1.o)
 .debug_abbrev  0x00001666      0x1c4 embedded-software\mcu-freertos\libfoxbms-os.a(os.c.1.o)
 .debug_abbrev  0x0000182a       0xd8 embedded-software\mcu-freertos\libfoxbms-os.a(list.c.1.o)
 .debug_abbrev  0x00001902      0x133 embedded-software\mcu-secondary\src\application\libfoxbms-application.a(appltask.c.1.o)
 .debug_abbrev  0x00001a35       0xbe embedded-software\mcu-secondary\src\application\libfoxbms-application.a(appltask_cfg.c.1.o)
 .debug_abbrev  0x00001af3      0x1ac embedded-software\mcu-secondary\src\application\libfoxbms-application.a(bms.c.1.o)
 .debug_abbrev  0x00001c9f      0x17f embedded-software\mcu-common\src\engine\libfoxbms-common-engine.a(database.c.1.o)
 .debug_abbrev  0x00001e1e       0xc1 embedded-software\mcu-secondary\src\engine\libfoxbms-engine.a(database_cfg.c.1.o)
 .debug_abbrev  0x00001edf      0x19b embedded-software\mcu-secondary\src\engine\libfoxbms-engine.a(diag_cfg.c.1.o)
 .debug_abbrev  0x0000207a      0x142 embedded-software\mcu-secondary\src\engine\libfoxbms-engine.a(enginetask_cfg.c.1.o)
 .debug_abbrev  0x000021bc      0x26c embedded-software\mcu-secondary\src\engine\libfoxbms-engine.a(diag.c.1.o)
 .debug_abbrev  0x00002428       0xe7 embedded-software\mcu-secondary\src\engine\libfoxbms-engine.a(enginetask.c.1.o)
 .debug_abbrev  0x0000250f      0x130 embedded-software\mcu-secondary\src\engine\libfoxbms-engine.a(sys.c.1.o)
 .debug_abbrev  0x0000263f      0x166 embedded-software\mcu-secondary\src\module\libfoxbms-module.a(adc_ex.c.1.o)
 .debug_abbrev  0x000027a5      0x11d embedded-software\mcu-secondary\src\module\libfoxbms-module.a(adc_cfg.c.1.o)
 .debug_abbrev  0x000028c2      0x122 embedded-software\mcu-secondary\src\module\libfoxbms-module.a(bkpsram_cfg.c.1.o)
 .debug_abbrev  0x000029e4      0x162 embedded-software\mcu-secondary\src\module\libfoxbms-module.a(timer.c.1.o)
 .debug_abbrev  0x00002b46      0x114 embedded-software\mcu-secondary\src\module\libfoxbms-module.a(timer_cfg.c.1.o)
 .debug_abbrev  0x00002c5a      0x17c embedded-software\mcu-common\src\module\libfoxbms-common-module.a(adc.c.1.o)
 .debug_abbrev  0x00002dd6      0x2e1 embedded-software\mcu-common\src\module\libfoxbms-common-module.a(can.c.1.o)
 .debug_abbrev  0x000030b7      0x1e0 embedded-software\mcu-common\src\module\libfoxbms-common-module.a(chksum.c.1.o)
 .debug_abbrev  0x00003297      0x16d embedded-software\mcu-common\src\module\libfoxbms-common-module.a(dma.c.1.o)
 .debug_abbrev  0x00003404      0x1af embedded-software\mcu-common\src\module\libfoxbms-common-module.a(interlock.c.1.o)
 .debug_abbrev  0x000035b3      0x19b embedded-software\mcu-common\src\module\libfoxbms-common-module.a(io.c.1.o)
 .debug_abbrev  0x0000374e      0x11d embedded-software\mcu-common\src\module\libfoxbms-common-module.a(portcheck.c.1.o)
 .debug_abbrev  0x0000386b       0xb5 embedded-software\mcu-common\src\module\libfoxbms-common-module.a(meas.c.1.o)
 .debug_abbrev  0x00003920      0x2ac embedded-software\mcu-common\src\module\libfoxbms-common-module.a(ltc.c.1.o)
 .debug_abbrev  0x00003bcc       0xba embedded-software\mcu-common\src\module\libfoxbms-common-module.a(ltc_pec.c.1.o)
 .debug_abbrev  0x00003c86      0x20f embedded-software\mcu-common\src\module\libfoxbms-common-module.a(mcu.c.1.o)
 .debug_abbrev  0x00003e95      0x107 embedded-software\mcu-common\src\module\libfoxbms-common-module.a(rcc.c.1.o)
 .debug_abbrev  0x00003f9c      0x134 embedded-software\mcu-common\src\module\libfoxbms-common-module.a(rtc.c.1.o)
 .debug_abbrev  0x000040d0       0xfd embedded-software\mcu-common\src\module\libfoxbms-common-module.a(bkpsram.c.1.o)
 .debug_abbrev  0x000041cd      0x21c embedded-software\mcu-common\src\module\libfoxbms-common-module.a(spi.c.1.o)
 .debug_abbrev  0x000043e9       0xa6 embedded-software\mcu-common\src\module\libfoxbms-common-module.a(led.c.1.o)
 .debug_abbrev  0x0000448f       0xeb embedded-software\mcu-common\src\module\libfoxbms-common-module.a(wdg.c.1.o)
 .debug_abbrev  0x0000457a      0x133 embedded-software\mcu-common\src\module\libfoxbms-common-module.a(dma_cfg.c.1.o)
 .debug_abbrev  0x000046ad       0x9d embedded-software\mcu-common\src\module\libfoxbms-common-module.a(interlock_cfg.c.1.o)
 .debug_abbrev  0x0000474a       0xb6 embedded-software\mcu-common\src\module\libfoxbms-common-module.a(io_cfg.c.1.o)
 .debug_abbrev  0x00004800       0xbd embedded-software\mcu-common\src\module\libfoxbms-common-module.a(ltc_cfg.c.1.o)
 .debug_abbrev  0x000048bd       0x9d embedded-software\mcu-common\src\module\libfoxbms-common-module.a(rcc_cfg.c.1.o)
 .debug_abbrev  0x0000495a       0xc6 embedded-software\mcu-common\src\module\libfoxbms-common-module.a(rtc_cfg.c.1.o)
 .debug_abbrev  0x00004a20      0x1b3 embedded-software\mcu-common\src\module\libfoxbms-common-module.a(can_cfg.c.1.o)
 .debug_abbrev  0x00004bd3      0x12c embedded-software\mcu-common\src\module\libfoxbms-common-module.a(spi_cfg.c.1.o)
 .debug_abbrev  0x00004cff      0x201 embedded-software\mcu-hal\STM32F4xx_HAL_Driver\libfoxbms-stmhal.a(stm32f4xx_hal.c.1.o)
 .debug_abbrev  0x00004f00      0x219 embedded-software\mcu-hal\STM32F4xx_HAL_Driver\libfoxbms-stmhal.a(stm32f4xx_hal_adc.c.1.o)
 .debug_abbrev  0x00005119      0x1e2 embedded-software\mcu-hal\STM32F4xx_HAL_Driver\libfoxbms-stmhal.a(stm32f4xx_hal_adc_ex.c.1.o)
 .debug_abbrev  0x000052fb      0x204 embedded-software\mcu-hal\STM32F4xx_HAL_Driver\libfoxbms-stmhal.a(stm32f4xx_hal_can.c.1.o)
 .debug_abbrev  0x000054ff      0x2a4 embedded-software\mcu-hal\STM32F4xx_HAL_Driver\libfoxbms-stmhal.a(stm32f4xx_hal_cortex.c.1.o)
 .debug_abbrev  0x000057a3      0x224 embedded-software\mcu-hal\STM32F4xx_HAL_Driver\libfoxbms-stmhal.a(stm32f4xx_hal_dma.c.1.o)
 .debug_abbrev  0x000059c7      0x1aa embedded-software\mcu-hal\STM32F4xx_HAL_Driver\libfoxbms-stmhal.a(stm32f4xx_hal_gpio.c.1.o)
 .debug_abbrev  0x00005b71      0x112 embedded-software\mcu-hal\STM32F4xx_HAL_Driver\libfoxbms-stmhal.a(stm32f4xx_hal_iwdg.c.1.o)
 .debug_abbrev  0x00005c83      0x20d embedded-software\mcu-hal\STM32F4xx_HAL_Driver\libfoxbms-stmhal.a(stm32f4xx_hal_pwr.c.1.o)
 .debug_abbrev  0x00005e90      0x1f8 embedded-software\mcu-hal\STM32F4xx_HAL_Driver\libfoxbms-stmhal.a(stm32f4xx_hal_pwr_ex.c.1.o)
 .debug_abbrev  0x00006088      0x2ae embedded-software\mcu-hal\STM32F4xx_HAL_Driver\libfoxbms-stmhal.a(stm32f4xx_hal_rcc.c.1.o)
 .debug_abbrev  0x00006336      0x1a6 embedded-software\mcu-hal\STM32F4xx_HAL_Driver\libfoxbms-stmhal.a(stm32f4xx_hal_rcc_ex.c.1.o)
 .debug_abbrev  0x000064dc      0x1a0 embedded-software\mcu-hal\STM32F4xx_HAL_Driver\libfoxbms-stmhal.a(stm32f4xx_hal_rtc.c.1.o)
 .debug_abbrev  0x0000667c      0x1af embedded-software\mcu-hal\STM32F4xx_HAL_Driver\libfoxbms-stmhal.a(stm32f4xx_hal_rtc_ex.c.1.o)
 .debug_abbrev  0x0000682b      0x1fd embedded-software\mcu-hal\STM32F4xx_HAL_Driver\libfoxbms-stmhal.a(stm32f4xx_hal_spi.c.1.o)

.debug_aranges  0x00000000     0x1dc8
 .debug_aranges
                0x00000000       0x18 embedded-software\mcu-secondary\src\general\config\nvic_cfg.c.1.o
 .debug_aranges
                0x00000018       0x68 embedded-software\mcu-secondary\src\general\config\stm32f4xx_hal_msp.c.1.o
 .debug_aranges
                0x00000080       0xe0 embedded-software\mcu-secondary\src\general\config\stm32f4xx_it.c.1.o
 .debug_aranges
                0x00000160       0x30 embedded-software\mcu-secondary\src\general\config\system_stm32f4xx.c.1.o
 .debug_aranges
                0x00000190       0x30 embedded-software\mcu-secondary\src\general\main.c.1.o
 .debug_aranges
                0x000001c0       0x40 embedded-software\mcu-secondary\src\general\nvic.c.1.o
 .debug_aranges
                0x00000200       0x18 embedded-software\mcu-secondary\src\general\version.c.1.o
 .debug_aranges
                0x00000218       0x28 embedded-software\mcu-secondary\src\general\config\startup_stm32f429xx.o
 .debug_aranges
                0x00000240      0x1b0 embedded-software\mcu-freertos\libfoxbms-os.a(cmsis_os.c.1.o)
 .debug_aranges
                0x000003f0       0x88 embedded-software\mcu-freertos\libfoxbms-os.a(port.c.1.o)
 .debug_aranges
                0x00000478       0x50 embedded-software\mcu-freertos\libfoxbms-os.a(heap_4.c.1.o)
 .debug_aranges
                0x000004c8      0x118 embedded-software\mcu-freertos\libfoxbms-os.a(queue.c.1.o)
 .debug_aranges
                0x000005e0      0x1d8 embedded-software\mcu-freertos\libfoxbms-os.a(tasks.c.1.o)
 .debug_aranges
                0x000007b8       0xb8 embedded-software\mcu-freertos\libfoxbms-os.a(timers.c.1.o)
 .debug_aranges
                0x00000870       0x88 embedded-software\mcu-freertos\libfoxbms-os.a(os.c.1.o)
 .debug_aranges
                0x000008f8       0x40 embedded-software\mcu-freertos\libfoxbms-os.a(list.c.1.o)
 .debug_aranges
                0x00000938       0x48 embedded-software\mcu-secondary\src\application\libfoxbms-application.a(appltask.c.1.o)
 .debug_aranges
                0x00000980       0x30 embedded-software\mcu-secondary\src\application\libfoxbms-application.a(appltask_cfg.c.1.o)
 .debug_aranges
                0x000009b0       0x78 embedded-software\mcu-secondary\src\application\libfoxbms-application.a(bms.c.1.o)
 .debug_aranges
                0x00000a28       0x40 embedded-software\mcu-common\src\engine\libfoxbms-common-engine.a(database.c.1.o)
 .debug_aranges
                0x00000a68       0x18 embedded-software\mcu-secondary\src\engine\libfoxbms-engine.a(database_cfg.c.1.o)
 .debug_aranges
                0x00000a80       0xd0 embedded-software\mcu-secondary\src\engine\libfoxbms-engine.a(diag_cfg.c.1.o)
 .debug_aranges
                0x00000b50       0x38 embedded-software\mcu-secondary\src\engine\libfoxbms-engine.a(enginetask_cfg.c.1.o)
 .debug_aranges
                0x00000b88       0x68 embedded-software\mcu-secondary\src\engine\libfoxbms-engine.a(diag.c.1.o)
 .debug_aranges
                0x00000bf0       0x48 embedded-software\mcu-secondary\src\engine\libfoxbms-engine.a(enginetask.c.1.o)
 .debug_aranges
                0x00000c38       0x50 embedded-software\mcu-secondary\src\engine\libfoxbms-engine.a(sys.c.1.o)
 .debug_aranges
                0x00000c88       0x28 embedded-software\mcu-secondary\src\module\libfoxbms-module.a(adc_ex.c.1.o)
 .debug_aranges
                0x00000cb0       0x18 embedded-software\mcu-secondary\src\module\libfoxbms-module.a(adc_cfg.c.1.o)
 .debug_aranges
                0x00000cc8       0x28 embedded-software\mcu-secondary\src\module\libfoxbms-module.a(bkpsram_cfg.c.1.o)
 .debug_aranges
                0x00000cf0       0x30 embedded-software\mcu-secondary\src\module\libfoxbms-module.a(timer.c.1.o)
 .debug_aranges
                0x00000d20       0x18 embedded-software\mcu-secondary\src\module\libfoxbms-module.a(timer_cfg.c.1.o)
 .debug_aranges
                0x00000d38       0x28 embedded-software\mcu-common\src\module\libfoxbms-common-module.a(adc.c.1.o)
 .debug_aranges
                0x00000d60       0xb0 embedded-software\mcu-common\src\module\libfoxbms-common-module.a(can.c.1.o)
 .debug_aranges
                0x00000e10       0x30 embedded-software\mcu-common\src\module\libfoxbms-common-module.a(chksum.c.1.o)
 .debug_aranges
                0x00000e40       0x20 embedded-software\mcu-common\src\module\libfoxbms-common-module.a(dma.c.1.o)
 .debug_aranges
                0x00000e60       0x80 embedded-software\mcu-common\src\module\libfoxbms-common-module.a(interlock.c.1.o)
 .debug_aranges
                0x00000ee0       0x58 embedded-software\mcu-common\src\module\libfoxbms-common-module.a(io.c.1.o)
 .debug_aranges
                0x00000f38       0x20 embedded-software\mcu-common\src\module\libfoxbms-common-module.a(portcheck.c.1.o)
 .debug_aranges
                0x00000f58       0x60 embedded-software\mcu-common\src\module\libfoxbms-common-module.a(meas.c.1.o)
 .debug_aranges
                0x00000fb8      0x168 embedded-software\mcu-common\src\module\libfoxbms-common-module.a(ltc.c.1.o)
 .debug_aranges
                0x00001120       0x20 embedded-software\mcu-common\src\module\libfoxbms-common-module.a(ltc_pec.c.1.o)
 .debug_aranges
                0x00001140       0x50 embedded-software\mcu-common\src\module\libfoxbms-common-module.a(mcu.c.1.o)
 .debug_aranges
                0x00001190       0x20 embedded-software\mcu-common\src\module\libfoxbms-common-module.a(rcc.c.1.o)
 .debug_aranges
                0x000011b0       0x40 embedded-software\mcu-common\src\module\libfoxbms-common-module.a(rtc.c.1.o)
 .debug_aranges
                0x000011f0       0x20 embedded-software\mcu-common\src\module\libfoxbms-common-module.a(bkpsram.c.1.o)
 .debug_aranges
                0x00001210       0x60 embedded-software\mcu-common\src\module\libfoxbms-common-module.a(spi.c.1.o)
 .debug_aranges
                0x00001270       0x28 embedded-software\mcu-common\src\module\libfoxbms-common-module.a(led.c.1.o)
 .debug_aranges
                0x00001298       0x28 embedded-software\mcu-common\src\module\libfoxbms-common-module.a(wdg.c.1.o)
 .debug_aranges
                0x000012c0       0x18 embedded-software\mcu-common\src\module\libfoxbms-common-module.a(dma_cfg.c.1.o)
 .debug_aranges
                0x000012d8       0x18 embedded-software\mcu-common\src\module\libfoxbms-common-module.a(interlock_cfg.c.1.o)
 .debug_aranges
                0x000012f0       0x18 embedded-software\mcu-common\src\module\libfoxbms-common-module.a(io_cfg.c.1.o)
 .debug_aranges
                0x00001308       0x18 embedded-software\mcu-common\src\module\libfoxbms-common-module.a(ltc_cfg.c.1.o)
 .debug_aranges
                0x00001320       0x18 embedded-software\mcu-common\src\module\libfoxbms-common-module.a(rcc_cfg.c.1.o)
 .debug_aranges
                0x00001338       0x18 embedded-software\mcu-common\src\module\libfoxbms-common-module.a(rtc_cfg.c.1.o)
 .debug_aranges
                0x00001350       0x30 embedded-software\mcu-common\src\module\libfoxbms-common-module.a(can_cfg.c.1.o)
 .debug_aranges
                0x00001380       0x18 embedded-software\mcu-common\src\module\libfoxbms-common-module.a(spi_cfg.c.1.o)
 .debug_aranges
                0x00001398       0xd0 embedded-software\mcu-hal\STM32F4xx_HAL_Driver\libfoxbms-stmhal.a(stm32f4xx_hal.c.1.o)
 .debug_aranges
                0x00001468       0xe8 embedded-software\mcu-hal\STM32F4xx_HAL_Driver\libfoxbms-stmhal.a(stm32f4xx_hal_adc.c.1.o)
 .debug_aranges
                0x00001550       0x90 embedded-software\mcu-hal\STM32F4xx_HAL_Driver\libfoxbms-stmhal.a(stm32f4xx_hal_adc_ex.c.1.o)
 .debug_aranges
                0x000015e0       0xb0 embedded-software\mcu-hal\STM32F4xx_HAL_Driver\libfoxbms-stmhal.a(stm32f4xx_hal_can.c.1.o)
 .debug_aranges
                0x00001690      0x108 embedded-software\mcu-hal\STM32F4xx_HAL_Driver\libfoxbms-stmhal.a(stm32f4xx_hal_cortex.c.1.o)
 .debug_aranges
                0x00001798       0x90 embedded-software\mcu-hal\STM32F4xx_HAL_Driver\libfoxbms-stmhal.a(stm32f4xx_hal_dma.c.1.o)
 .debug_aranges
                0x00001828       0x58 embedded-software\mcu-hal\STM32F4xx_HAL_Driver\libfoxbms-stmhal.a(stm32f4xx_hal_gpio.c.1.o)
 .debug_aranges
                0x00001880       0x28 embedded-software\mcu-hal\STM32F4xx_HAL_Driver\libfoxbms-stmhal.a(stm32f4xx_hal_iwdg.c.1.o)
 .debug_aranges
                0x000018a8       0xa0 embedded-software\mcu-hal\STM32F4xx_HAL_Driver\libfoxbms-stmhal.a(stm32f4xx_hal_pwr.c.1.o)
 .debug_aranges
                0x00001948       0x60 embedded-software\mcu-hal\STM32F4xx_HAL_Driver\libfoxbms-stmhal.a(stm32f4xx_hal_pwr_ex.c.1.o)
 .debug_aranges
                0x000019a8       0x88 embedded-software\mcu-hal\STM32F4xx_HAL_Driver\libfoxbms-stmhal.a(stm32f4xx_hal_rcc.c.1.o)
 .debug_aranges
                0x00001a30       0x30 embedded-software\mcu-hal\STM32F4xx_HAL_Driver\libfoxbms-stmhal.a(stm32f4xx_hal_rcc_ex.c.1.o)
 .debug_aranges
                0x00001a60       0xb8 embedded-software\mcu-hal\STM32F4xx_HAL_Driver\libfoxbms-stmhal.a(stm32f4xx_hal_rtc.c.1.o)
 .debug_aranges
                0x00001b18      0x130 embedded-software\mcu-hal\STM32F4xx_HAL_Driver\libfoxbms-stmhal.a(stm32f4xx_hal_rtc_ex.c.1.o)
 .debug_aranges
                0x00001c48      0x180 embedded-software\mcu-hal\STM32F4xx_HAL_Driver\libfoxbms-stmhal.a(stm32f4xx_hal_spi.c.1.o)

.debug_line     0x00000000    0x130e5
 .debug_line    0x00000000      0x1f7 embedded-software\mcu-secondary\src\general\config\nvic_cfg.c.1.o
 .debug_line    0x000001f7      0x320 embedded-software\mcu-secondary\src\general\config\stm32f4xx_hal_msp.c.1.o
 .debug_line    0x00000517      0x575 embedded-software\mcu-secondary\src\general\config\stm32f4xx_it.c.1.o
 .debug_line    0x00000a8c      0x303 embedded-software\mcu-secondary\src\general\config\system_stm32f4xx.c.1.o
 .debug_line    0x00000d8f      0x4ee embedded-software\mcu-secondary\src\general\main.c.1.o
 .debug_line    0x0000127d      0x2f3 embedded-software\mcu-secondary\src\general\nvic.c.1.o
 .debug_line    0x00001570       0xb1 embedded-software\mcu-secondary\src\general\version.c.1.o
 .debug_line    0x00001621       0xad embedded-software\mcu-secondary\src\general\config\startup_stm32f429xx.o
 .debug_line    0x000016ce      0x824 embedded-software\mcu-freertos\libfoxbms-os.a(cmsis_os.c.1.o)
 .debug_line    0x00001ef2      0x43f embedded-software\mcu-freertos\libfoxbms-os.a(port.c.1.o)
 .debug_line    0x00002331      0x312 embedded-software\mcu-freertos\libfoxbms-os.a(heap_4.c.1.o)
 .debug_line    0x00002643      0x919 embedded-software\mcu-freertos\libfoxbms-os.a(queue.c.1.o)
 .debug_line    0x00002f5c      0xcdd embedded-software\mcu-freertos\libfoxbms-os.a(tasks.c.1.o)
 .debug_line    0x00003c39      0x525 embedded-software\mcu-freertos\libfoxbms-os.a(timers.c.1.o)
 .debug_line    0x0000415e      0x4d7 embedded-software\mcu-freertos\libfoxbms-os.a(os.c.1.o)
 .debug_line    0x00004635      0x232 embedded-software\mcu-freertos\libfoxbms-os.a(list.c.1.o)
 .debug_line    0x00004867      0x3a8 embedded-software\mcu-secondary\src\application\libfoxbms-application.a(appltask.c.1.o)
 .debug_line    0x00004c0f      0x2e8 embedded-software\mcu-secondary\src\application\libfoxbms-application.a(appltask_cfg.c.1.o)
 .debug_line    0x00004ef7      0x484 embedded-software\mcu-secondary\src\application\libfoxbms-application.a(bms.c.1.o)
 .debug_line    0x0000537b      0x409 embedded-software\mcu-common\src\engine\libfoxbms-common-engine.a(database.c.1.o)
 .debug_line    0x00005784       0xc1 embedded-software\mcu-secondary\src\engine\libfoxbms-engine.a(database_cfg.c.1.o)
 .debug_line    0x00005845      0x3cb embedded-software\mcu-secondary\src\engine\libfoxbms-engine.a(diag_cfg.c.1.o)
 .debug_line    0x00005c10      0x2c0 embedded-software\mcu-secondary\src\engine\libfoxbms-engine.a(enginetask_cfg.c.1.o)
 .debug_line    0x00005ed0      0x5b0 embedded-software\mcu-secondary\src\engine\libfoxbms-engine.a(diag.c.1.o)
 .debug_line    0x00006480      0x242 embedded-software\mcu-secondary\src\engine\libfoxbms-engine.a(enginetask.c.1.o)
 .debug_line    0x000066c2      0x37a embedded-software\mcu-secondary\src\engine\libfoxbms-engine.a(sys.c.1.o)
 .debug_line    0x00006a3c      0x2dc embedded-software\mcu-secondary\src\module\libfoxbms-module.a(adc_ex.c.1.o)
 .debug_line    0x00006d18      0x224 embedded-software\mcu-secondary\src\module\libfoxbms-module.a(adc_cfg.c.1.o)
 .debug_line    0x00006f3c      0x32c embedded-software\mcu-secondary\src\module\libfoxbms-module.a(bkpsram_cfg.c.1.o)
 .debug_line    0x00007268      0x293 embedded-software\mcu-secondary\src\module\libfoxbms-module.a(timer.c.1.o)
 .debug_line    0x000074fb      0x217 embedded-software\mcu-secondary\src\module\libfoxbms-module.a(timer_cfg.c.1.o)
 .debug_line    0x00007712      0x278 embedded-software\mcu-common\src\module\libfoxbms-common-module.a(adc.c.1.o)
 .debug_line    0x0000798a      0x92a embedded-software\mcu-common\src\module\libfoxbms-common-module.a(can.c.1.o)
 .debug_line    0x000082b4      0x30d embedded-software\mcu-common\src\module\libfoxbms-common-module.a(chksum.c.1.o)
 .debug_line    0x000085c1      0x25b embedded-software\mcu-common\src\module\libfoxbms-common-module.a(dma.c.1.o)
 .debug_line    0x0000881c      0x43e embedded-software\mcu-common\src\module\libfoxbms-common-module.a(interlock.c.1.o)
 .debug_line    0x00008c5a      0x359 embedded-software\mcu-common\src\module\libfoxbms-common-module.a(io.c.1.o)
 .debug_line    0x00008fb3      0x33d embedded-software\mcu-common\src\module\libfoxbms-common-module.a(portcheck.c.1.o)
 .debug_line    0x000092f0      0x264 embedded-software\mcu-common\src\module\libfoxbms-common-module.a(meas.c.1.o)
 .debug_line    0x00009554     0x1152 embedded-software\mcu-common\src\module\libfoxbms-common-module.a(ltc.c.1.o)
 .debug_line    0x0000a6a6       0xdd embedded-software\mcu-common\src\module\libfoxbms-common-module.a(ltc_pec.c.1.o)
 .debug_line    0x0000a783      0x347 embedded-software\mcu-common\src\module\libfoxbms-common-module.a(mcu.c.1.o)
 .debug_line    0x0000aaca      0x237 embedded-software\mcu-common\src\module\libfoxbms-common-module.a(rcc.c.1.o)
 .debug_line    0x0000ad01      0x2e9 embedded-software\mcu-common\src\module\libfoxbms-common-module.a(rtc.c.1.o)
 .debug_line    0x0000afea      0x1ff embedded-software\mcu-common\src\module\libfoxbms-common-module.a(bkpsram.c.1.o)
 .debug_line    0x0000b1e9      0x3b7 embedded-software\mcu-common\src\module\libfoxbms-common-module.a(spi.c.1.o)
 .debug_line    0x0000b5a0      0x222 embedded-software\mcu-common\src\module\libfoxbms-common-module.a(led.c.1.o)
 .debug_line    0x0000b7c2      0x221 embedded-software\mcu-common\src\module\libfoxbms-common-module.a(wdg.c.1.o)
 .debug_line    0x0000b9e3      0x222 embedded-software\mcu-common\src\module\libfoxbms-common-module.a(dma_cfg.c.1.o)
 .debug_line    0x0000bc05      0x1c1 embedded-software\mcu-common\src\module\libfoxbms-common-module.a(interlock_cfg.c.1.o)
 .debug_line    0x0000bdc6      0x1b3 embedded-software\mcu-common\src\module\libfoxbms-common-module.a(io_cfg.c.1.o)
 .debug_line    0x0000bf79      0x1d4 embedded-software\mcu-common\src\module\libfoxbms-common-module.a(ltc_cfg.c.1.o)
 .debug_line    0x0000c14d      0x1c5 embedded-software\mcu-common\src\module\libfoxbms-common-module.a(rcc_cfg.c.1.o)
 .debug_line    0x0000c312      0x1e9 embedded-software\mcu-common\src\module\libfoxbms-common-module.a(rtc_cfg.c.1.o)
 .debug_line    0x0000c4fb      0x2de embedded-software\mcu-common\src\module\libfoxbms-common-module.a(can_cfg.c.1.o)
 .debug_line    0x0000c7d9      0x222 embedded-software\mcu-common\src\module\libfoxbms-common-module.a(spi_cfg.c.1.o)
 .debug_line    0x0000c9fb      0x3f5 embedded-software\mcu-hal\STM32F4xx_HAL_Driver\libfoxbms-stmhal.a(stm32f4xx_hal.c.1.o)
 .debug_line    0x0000cdf0      0x954 embedded-software\mcu-hal\STM32F4xx_HAL_Driver\libfoxbms-stmhal.a(stm32f4xx_hal_adc.c.1.o)
 .debug_line    0x0000d744      0x769 embedded-software\mcu-hal\STM32F4xx_HAL_Driver\libfoxbms-stmhal.a(stm32f4xx_hal_adc_ex.c.1.o)
 .debug_line    0x0000dead      0x799 embedded-software\mcu-hal\STM32F4xx_HAL_Driver\libfoxbms-stmhal.a(stm32f4xx_hal_can.c.1.o)
 .debug_line    0x0000e646      0x68c embedded-software\mcu-hal\STM32F4xx_HAL_Driver\libfoxbms-stmhal.a(stm32f4xx_hal_cortex.c.1.o)
 .debug_line    0x0000ecd2      0x638 embedded-software\mcu-hal\STM32F4xx_HAL_Driver\libfoxbms-stmhal.a(stm32f4xx_hal_dma.c.1.o)
 .debug_line    0x0000f30a      0x5fa embedded-software\mcu-hal\STM32F4xx_HAL_Driver\libfoxbms-stmhal.a(stm32f4xx_hal_gpio.c.1.o)
 .debug_line    0x0000f904      0x26b embedded-software\mcu-hal\STM32F4xx_HAL_Driver\libfoxbms-stmhal.a(stm32f4xx_hal_iwdg.c.1.o)
 .debug_line    0x0000fb6f      0x432 embedded-software\mcu-hal\STM32F4xx_HAL_Driver\libfoxbms-stmhal.a(stm32f4xx_hal_pwr.c.1.o)
 .debug_line    0x0000ffa1      0x39e embedded-software\mcu-hal\STM32F4xx_HAL_Driver\libfoxbms-stmhal.a(stm32f4xx_hal_pwr_ex.c.1.o)
 .debug_line    0x0001033f      0x729 embedded-software\mcu-hal\STM32F4xx_HAL_Driver\libfoxbms-stmhal.a(stm32f4xx_hal_rcc.c.1.o)
 .debug_line    0x00010a68      0x53d embedded-software\mcu-hal\STM32F4xx_HAL_Driver\libfoxbms-stmhal.a(stm32f4xx_hal_rcc_ex.c.1.o)
 .debug_line    0x00010fa5      0x9e4 embedded-software\mcu-hal\STM32F4xx_HAL_Driver\libfoxbms-stmhal.a(stm32f4xx_hal_rtc.c.1.o)
 .debug_line    0x00011989      0xc09 embedded-software\mcu-hal\STM32F4xx_HAL_Driver\libfoxbms-stmhal.a(stm32f4xx_hal_rtc_ex.c.1.o)
 .debug_line    0x00012592      0xb53 embedded-software\mcu-hal\STM32F4xx_HAL_Driver\libfoxbms-stmhal.a(stm32f4xx_hal_spi.c.1.o)

.debug_str      0x00000000     0xdccd
 .debug_str     0x00000000      0x850 embedded-software\mcu-secondary\src\general\config\nvic_cfg.c.1.o
                                0x8a0 (size before relaxing)
 .debug_str     0x00000850      0x95e embedded-software\mcu-secondary\src\general\config\stm32f4xx_hal_msp.c.1.o
                                0xc31 (size before relaxing)
 .debug_str     0x000011ae      0x8bb embedded-software\mcu-secondary\src\general\config\stm32f4xx_it.c.1.o
                               0x16ce (size before relaxing)
 .debug_str     0x00001a69       0xdc embedded-software\mcu-secondary\src\general\config\system_stm32f4xx.c.1.o
                                0x91b (size before relaxing)
 .debug_str     0x00001b45     0x10f9 embedded-software\mcu-secondary\src\general\main.c.1.o
                               0x1d80 (size before relaxing)
 .debug_str     0x00002c3e       0xb8 embedded-software\mcu-secondary\src\general\nvic.c.1.o
                                0xd28 (size before relaxing)
 .debug_str     0x00002cf6       0x62 embedded-software\mcu-secondary\src\general\version.c.1.o
                                0x485 (size before relaxing)
 .debug_str     0x00002d58      0x841 embedded-software\mcu-freertos\libfoxbms-os.a(cmsis_os.c.1.o)
                                0xb2d (size before relaxing)
 .debug_str     0x00003599      0x25f embedded-software\mcu-freertos\libfoxbms-os.a(port.c.1.o)
                                0x94b (size before relaxing)
 .debug_str     0x000037f8      0x20b embedded-software\mcu-freertos\libfoxbms-os.a(heap_4.c.1.o)
                                0x881 (size before relaxing)
 .debug_str     0x00003a03      0x609 embedded-software\mcu-freertos\libfoxbms-os.a(queue.c.1.o)
                                0xd50 (size before relaxing)
 .debug_str     0x0000400c      0xb74 embedded-software\mcu-freertos\libfoxbms-os.a(tasks.c.1.o)
                               0x1479 (size before relaxing)
 .debug_str     0x00004b80      0x435 embedded-software\mcu-freertos\libfoxbms-os.a(timers.c.1.o)
                                0xc0e (size before relaxing)
 .debug_str     0x00004fb5      0x4e8 embedded-software\mcu-freertos\libfoxbms-os.a(os.c.1.o)
                                0xe3d (size before relaxing)
 .debug_str     0x0000549d       0xb5 embedded-software\mcu-freertos\libfoxbms-os.a(list.c.1.o)
                                0x37a (size before relaxing)
 .debug_str     0x00005552      0x153 embedded-software\mcu-secondary\src\application\libfoxbms-application.a(appltask.c.1.o)
                                0xbbe (size before relaxing)
 .debug_str     0x000056a5      0x2a2 embedded-software\mcu-secondary\src\application\libfoxbms-application.a(appltask_cfg.c.1.o)
                                0xb04 (size before relaxing)
 .debug_str     0x00005947      0x9ea embedded-software\mcu-secondary\src\application\libfoxbms-application.a(bms.c.1.o)
                               0x145a (size before relaxing)
 .debug_str     0x00006331      0x2af embedded-software\mcu-common\src\engine\libfoxbms-common-engine.a(database.c.1.o)
                                0xc2b (size before relaxing)
 .debug_str     0x000065e0      0x5f2 embedded-software\mcu-secondary\src\engine\libfoxbms-engine.a(database_cfg.c.1.o)
                                0xdea (size before relaxing)
 .debug_str     0x00006bd2      0x3d9 embedded-software\mcu-secondary\src\engine\libfoxbms-engine.a(diag_cfg.c.1.o)
                                0xfb3 (size before relaxing)
 .debug_str     0x00006fab      0x1cc embedded-software\mcu-secondary\src\engine\libfoxbms-engine.a(enginetask_cfg.c.1.o)
                                0xaf2 (size before relaxing)
 .debug_str     0x00007177      0x6a8 embedded-software\mcu-secondary\src\engine\libfoxbms-engine.a(diag.c.1.o)
                               0x152c (size before relaxing)
 .debug_str     0x0000781f      0x185 embedded-software\mcu-secondary\src\engine\libfoxbms-engine.a(enginetask.c.1.o)
                                0x663 (size before relaxing)
 .debug_str     0x000079a4      0x28c embedded-software\mcu-secondary\src\engine\libfoxbms-engine.a(sys.c.1.o)
                                0xfcc (size before relaxing)
 .debug_str     0x00007c30       0xd4 embedded-software\mcu-secondary\src\module\libfoxbms-module.a(adc_ex.c.1.o)
                                0x88a (size before relaxing)
 .debug_str     0x00007d04       0x5d embedded-software\mcu-secondary\src\module\libfoxbms-module.a(adc_cfg.c.1.o)
                                0x682 (size before relaxing)
 .debug_str     0x00007d61      0x17d embedded-software\mcu-secondary\src\module\libfoxbms-module.a(bkpsram_cfg.c.1.o)
                                0xa02 (size before relaxing)
 .debug_str     0x00007ede      0x228 embedded-software\mcu-secondary\src\module\libfoxbms-module.a(timer.c.1.o)
                                0xa4e (size before relaxing)
 .debug_str     0x00008106       0x44 embedded-software\mcu-secondary\src\module\libfoxbms-module.a(timer_cfg.c.1.o)
                                0x6ae (size before relaxing)
 .debug_str     0x0000814a       0x44 embedded-software\mcu-common\src\module\libfoxbms-common-module.a(adc.c.1.o)
                                0x750 (size before relaxing)
 .debug_str     0x0000818e      0x64a embedded-software\mcu-common\src\module\libfoxbms-common-module.a(can.c.1.o)
                               0x13f4 (size before relaxing)
 .debug_str     0x000087d8       0xab embedded-software\mcu-common\src\module\libfoxbms-common-module.a(chksum.c.1.o)
                                0x709 (size before relaxing)
 .debug_str     0x00008883       0x53 embedded-software\mcu-common\src\module\libfoxbms-common-module.a(dma.c.1.o)
                                0x5d8 (size before relaxing)
 .debug_str     0x000088d6      0x4d5 embedded-software\mcu-common\src\module\libfoxbms-common-module.a(interlock.c.1.o)
                               0x1418 (size before relaxing)
 .debug_str     0x00008dab       0xd8 embedded-software\mcu-common\src\module\libfoxbms-common-module.a(io.c.1.o)
                                0xda7 (size before relaxing)
 .debug_str     0x00008e83       0xa8 embedded-software\mcu-common\src\module\libfoxbms-common-module.a(portcheck.c.1.o)
                                0x356 (size before relaxing)
 .debug_str     0x00008f2b      0x50d embedded-software\mcu-common\src\module\libfoxbms-common-module.a(meas.c.1.o)
                                0x73b (size before relaxing)
 .debug_str     0x00009438     0x1afd embedded-software\mcu-common\src\module\libfoxbms-common-module.a(ltc.c.1.o)
                               0x3279 (size before relaxing)
 .debug_str     0x0000af35       0x5a embedded-software\mcu-common\src\module\libfoxbms-common-module.a(ltc_pec.c.1.o)
                                0x258 (size before relaxing)
 .debug_str     0x0000af8f      0x115 embedded-software\mcu-common\src\module\libfoxbms-common-module.a(mcu.c.1.o)
                                0x9b6 (size before relaxing)
 .debug_str     0x0000b0a4      0x146 embedded-software\mcu-common\src\module\libfoxbms-common-module.a(rcc.c.1.o)
                                0x477 (size before relaxing)
 .debug_str     0x0000b1ea      0x1a0 embedded-software\mcu-common\src\module\libfoxbms-common-module.a(rtc.c.1.o)
                                0x765 (size before relaxing)
 .debug_str     0x0000b38a       0x4a embedded-software\mcu-common\src\module\libfoxbms-common-module.a(bkpsram.c.1.o)
                                0x57b (size before relaxing)
 .debug_str     0x0000b3d4      0x127 embedded-software\mcu-common\src\module\libfoxbms-common-module.a(spi.c.1.o)
                                0xbef (size before relaxing)
 .debug_str     0x0000b4fb       0xc4 embedded-software\mcu-common\src\module\libfoxbms-common-module.a(led.c.1.o)
                                0x58a (size before relaxing)
 .debug_str     0x0000b5bf       0xa9 embedded-software\mcu-common\src\module\libfoxbms-common-module.a(wdg.c.1.o)
                                0x328 (size before relaxing)
 .debug_str     0x0000b668       0x42 embedded-software\mcu-common\src\module\libfoxbms-common-module.a(dma_cfg.c.1.o)
                                0x6eb (size before relaxing)
 .debug_str     0x0000b6aa       0x48 embedded-software\mcu-common\src\module\libfoxbms-common-module.a(interlock_cfg.c.1.o)
                                0x67e (size before relaxing)
 .debug_str     0x0000b6f2       0x41 embedded-software\mcu-common\src\module\libfoxbms-common-module.a(io_cfg.c.1.o)
                                0xb88 (size before relaxing)
 .debug_str     0x0000b733       0x57 embedded-software\mcu-common\src\module\libfoxbms-common-module.a(ltc_cfg.c.1.o)
                                0x841 (size before relaxing)
 .debug_str     0x0000b78a       0x42 embedded-software\mcu-common\src\module\libfoxbms-common-module.a(rcc_cfg.c.1.o)
                                0x39e (size before relaxing)
 .debug_str     0x0000b7cc       0x42 embedded-software\mcu-common\src\module\libfoxbms-common-module.a(rtc_cfg.c.1.o)
                                0x542 (size before relaxing)
 .debug_str     0x0000b80e      0x143 embedded-software\mcu-common\src\module\libfoxbms-common-module.a(can_cfg.c.1.o)
                                0x745 (size before relaxing)
 .debug_str     0x0000b951       0x42 embedded-software\mcu-common\src\module\libfoxbms-common-module.a(spi_cfg.c.1.o)
                                0x6f0 (size before relaxing)
 .debug_str     0x0000b993      0x243 embedded-software\mcu-hal\STM32F4xx_HAL_Driver\libfoxbms-stmhal.a(stm32f4xx_hal.c.1.o)
                                0xb80 (size before relaxing)
 .debug_str     0x0000bbd6      0x2ac embedded-software\mcu-hal\STM32F4xx_HAL_Driver\libfoxbms-stmhal.a(stm32f4xx_hal_adc.c.1.o)
                                0x97e (size before relaxing)
 .debug_str     0x0000be82      0x317 embedded-software\mcu-hal\STM32F4xx_HAL_Driver\libfoxbms-stmhal.a(stm32f4xx_hal_adc_ex.c.1.o)
                                0x9a4 (size before relaxing)
 .debug_str     0x0000c199      0x18c embedded-software\mcu-hal\STM32F4xx_HAL_Driver\libfoxbms-stmhal.a(stm32f4xx_hal_can.c.1.o)
                                0x79c (size before relaxing)
 .debug_str     0x0000c325      0x37b embedded-software\mcu-hal\STM32F4xx_HAL_Driver\libfoxbms-stmhal.a(stm32f4xx_hal_cortex.c.1.o)
                                0xcd6 (size before relaxing)
 .debug_str     0x0000c6a0      0x30c embedded-software\mcu-hal\STM32F4xx_HAL_Driver\libfoxbms-stmhal.a(stm32f4xx_hal_dma.c.1.o)
                                0x7ec (size before relaxing)
 .debug_str     0x0000c9ac      0x104 embedded-software\mcu-hal\STM32F4xx_HAL_Driver\libfoxbms-stmhal.a(stm32f4xx_hal_gpio.c.1.o)
                                0x576 (size before relaxing)
 .debug_str     0x0000cab0       0x6d embedded-software\mcu-hal\STM32F4xx_HAL_Driver\libfoxbms-stmhal.a(stm32f4xx_hal_iwdg.c.1.o)
                                0x320 (size before relaxing)
 .debug_str     0x0000cb1d      0x239 embedded-software\mcu-hal\STM32F4xx_HAL_Driver\libfoxbms-stmhal.a(stm32f4xx_hal_pwr.c.1.o)
                                0x604 (size before relaxing)
 .debug_str     0x0000cd56      0x159 embedded-software\mcu-hal\STM32F4xx_HAL_Driver\libfoxbms-stmhal.a(stm32f4xx_hal_pwr_ex.c.1.o)
                                0x586 (size before relaxing)
 .debug_str     0x0000ceaf      0x1c0 embedded-software\mcu-hal\STM32F4xx_HAL_Driver\libfoxbms-stmhal.a(stm32f4xx_hal_rcc.c.1.o)
                                0x72a (size before relaxing)
 .debug_str     0x0000d06f       0x9d embedded-software\mcu-hal\STM32F4xx_HAL_Driver\libfoxbms-stmhal.a(stm32f4xx_hal_rcc_ex.c.1.o)
                                0x542 (size before relaxing)
 .debug_str     0x0000d10c      0x253 embedded-software\mcu-hal\STM32F4xx_HAL_Driver\libfoxbms-stmhal.a(stm32f4xx_hal_rtc.c.1.o)
                                0x7a7 (size before relaxing)
 .debug_str     0x0000d35f      0x584 embedded-software\mcu-hal\STM32F4xx_HAL_Driver\libfoxbms-stmhal.a(stm32f4xx_hal_rtc_ex.c.1.o)
                                0xaed (size before relaxing)
 .debug_str     0x0000d8e3      0x3ea embedded-software\mcu-hal\STM32F4xx_HAL_Driver\libfoxbms-stmhal.a(stm32f4xx_hal_spi.c.1.o)
                                0xb06 (size before relaxing)

.comment        0x00000000       0x70
 .comment       0x00000000       0x70 embedded-software\mcu-secondary\src\general\config\nvic_cfg.c.1.o
                                 0x71 (size before relaxing)
 .comment       0x00000000       0x71 embedded-software\mcu-secondary\src\general\config\stm32f4xx_hal_msp.c.1.o
 .comment       0x00000000       0x71 embedded-software\mcu-secondary\src\general\config\stm32f4xx_it.c.1.o
 .comment       0x00000000       0x71 embedded-software\mcu-secondary\src\general\config\system_stm32f4xx.c.1.o
 .comment       0x00000000       0x71 embedded-software\mcu-secondary\src\general\main.c.1.o
 .comment       0x00000000       0x71 embedded-software\mcu-secondary\src\general\nvic.c.1.o
 .comment       0x00000000       0x71 embedded-software\mcu-secondary\src\general\version.c.1.o
 .comment       0x00000000       0x71 embedded-software\mcu-freertos\libfoxbms-os.a(cmsis_os.c.1.o)
 .comment       0x00000000       0x71 embedded-software\mcu-freertos\libfoxbms-os.a(port.c.1.o)
 .comment       0x00000000       0x71 embedded-software\mcu-freertos\libfoxbms-os.a(heap_4.c.1.o)
 .comment       0x00000000       0x71 embedded-software\mcu-freertos\libfoxbms-os.a(queue.c.1.o)
 .comment       0x00000000       0x71 embedded-software\mcu-freertos\libfoxbms-os.a(tasks.c.1.o)
 .comment       0x00000000       0x71 embedded-software\mcu-freertos\libfoxbms-os.a(timers.c.1.o)
 .comment       0x00000000       0x71 embedded-software\mcu-freertos\libfoxbms-os.a(os.c.1.o)
 .comment       0x00000000       0x71 embedded-software\mcu-freertos\libfoxbms-os.a(list.c.1.o)
 .comment       0x00000000       0x71 embedded-software\mcu-secondary\src\application\libfoxbms-application.a(appltask.c.1.o)
 .comment       0x00000000       0x71 embedded-software\mcu-secondary\src\application\libfoxbms-application.a(appltask_cfg.c.1.o)
 .comment       0x00000000       0x71 embedded-software\mcu-secondary\src\application\libfoxbms-application.a(bms.c.1.o)
 .comment       0x00000000       0x71 embedded-software\mcu-common\src\engine\libfoxbms-common-engine.a(database.c.1.o)
 .comment       0x00000000       0x71 embedded-software\mcu-secondary\src\engine\libfoxbms-engine.a(database_cfg.c.1.o)
 .comment       0x00000000       0x71 embedded-software\mcu-secondary\src\engine\libfoxbms-engine.a(diag_cfg.c.1.o)
 .comment       0x00000000       0x71 embedded-software\mcu-secondary\src\engine\libfoxbms-engine.a(enginetask_cfg.c.1.o)
 .comment       0x00000000       0x71 embedded-software\mcu-secondary\src\engine\libfoxbms-engine.a(diag.c.1.o)
 .comment       0x00000000       0x71 embedded-software\mcu-secondary\src\engine\libfoxbms-engine.a(enginetask.c.1.o)
 .comment       0x00000000       0x71 embedded-software\mcu-secondary\src\engine\libfoxbms-engine.a(sys.c.1.o)
 .comment       0x00000000       0x71 embedded-software\mcu-secondary\src\module\libfoxbms-module.a(adc_ex.c.1.o)
 .comment       0x00000000       0x71 embedded-software\mcu-secondary\src\module\libfoxbms-module.a(adc_cfg.c.1.o)
 .comment       0x00000000       0x71 embedded-software\mcu-secondary\src\module\libfoxbms-module.a(bkpsram_cfg.c.1.o)
 .comment       0x00000000       0x71 embedded-software\mcu-secondary\src\module\libfoxbms-module.a(timer.c.1.o)
 .comment       0x00000000       0x71 embedded-software\mcu-secondary\src\module\libfoxbms-module.a(timer_cfg.c.1.o)
 .comment       0x00000000       0x71 embedded-software\mcu-common\src\module\libfoxbms-common-module.a(adc.c.1.o)
 .comment       0x00000000       0x71 embedded-software\mcu-common\src\module\libfoxbms-common-module.a(can.c.1.o)
 .comment       0x00000000       0x71 embedded-software\mcu-common\src\module\libfoxbms-common-module.a(chksum.c.1.o)
 .comment       0x00000000       0x71 embedded-software\mcu-common\src\module\libfoxbms-common-module.a(dma.c.1.o)
 .comment       0x00000000       0x71 embedded-software\mcu-common\src\module\libfoxbms-common-module.a(interlock.c.1.o)
 .comment       0x00000000       0x71 embedded-software\mcu-common\src\module\libfoxbms-common-module.a(io.c.1.o)
 .comment       0x00000000       0x71 embedded-software\mcu-common\src\module\libfoxbms-common-module.a(portcheck.c.1.o)
 .comment       0x00000000       0x71 embedded-software\mcu-common\src\module\libfoxbms-common-module.a(meas.c.1.o)
 .comment       0x00000000       0x71 embedded-software\mcu-common\src\module\libfoxbms-common-module.a(ltc.c.1.o)
 .comment       0x00000000       0x71 embedded-software\mcu-common\src\module\libfoxbms-common-module.a(ltc_pec.c.1.o)
 .comment       0x00000000       0x71 embedded-software\mcu-common\src\module\libfoxbms-common-module.a(mcu.c.1.o)
 .comment       0x00000000       0x71 embedded-software\mcu-common\src\module\libfoxbms-common-module.a(rcc.c.1.o)
 .comment       0x00000000       0x71 embedded-software\mcu-common\src\module\libfoxbms-common-module.a(rtc.c.1.o)
 .comment       0x00000000       0x71 embedded-software\mcu-common\src\module\libfoxbms-common-module.a(bkpsram.c.1.o)
 .comment       0x00000000       0x71 embedded-software\mcu-common\src\module\libfoxbms-common-module.a(spi.c.1.o)
 .comment       0x00000000       0x71 embedded-software\mcu-common\src\module\libfoxbms-common-module.a(led.c.1.o)
 .comment       0x00000000       0x71 embedded-software\mcu-common\src\module\libfoxbms-common-module.a(wdg.c.1.o)
 .comment       0x00000000       0x71 embedded-software\mcu-common\src\module\libfoxbms-common-module.a(dma_cfg.c.1.o)
 .comment       0x00000000       0x71 embedded-software\mcu-common\src\module\libfoxbms-common-module.a(interlock_cfg.c.1.o)
 .comment       0x00000000       0x71 embedded-software\mcu-common\src\module\libfoxbms-common-module.a(io_cfg.c.1.o)
 .comment       0x00000000       0x71 embedded-software\mcu-common\src\module\libfoxbms-common-module.a(ltc_cfg.c.1.o)
 .comment       0x00000000       0x71 embedded-software\mcu-common\src\module\libfoxbms-common-module.a(rcc_cfg.c.1.o)
 .comment       0x00000000       0x71 embedded-software\mcu-common\src\module\libfoxbms-common-module.a(rtc_cfg.c.1.o)
 .comment       0x00000000       0x71 embedded-software\mcu-common\src\module\libfoxbms-common-module.a(can_cfg.c.1.o)
 .comment       0x00000000       0x71 embedded-software\mcu-common\src\module\libfoxbms-common-module.a(spi_cfg.c.1.o)
 .comment       0x00000000       0x71 embedded-software\mcu-hal\STM32F4xx_HAL_Driver\libfoxbms-stmhal.a(stm32f4xx_hal.c.1.o)
 .comment       0x00000000       0x71 embedded-software\mcu-hal\STM32F4xx_HAL_Driver\libfoxbms-stmhal.a(stm32f4xx_hal_adc.c.1.o)
 .comment       0x00000000       0x71 embedded-software\mcu-hal\STM32F4xx_HAL_Driver\libfoxbms-stmhal.a(stm32f4xx_hal_adc_ex.c.1.o)
 .comment       0x00000000       0x71 embedded-software\mcu-hal\STM32F4xx_HAL_Driver\libfoxbms-stmhal.a(stm32f4xx_hal_can.c.1.o)
 .comment       0x00000000       0x71 embedded-software\mcu-hal\STM32F4xx_HAL_Driver\libfoxbms-stmhal.a(stm32f4xx_hal_cortex.c.1.o)
 .comment       0x00000000       0x71 embedded-software\mcu-hal\STM32F4xx_HAL_Driver\libfoxbms-stmhal.a(stm32f4xx_hal_dma.c.1.o)
 .comment       0x00000000       0x71 embedded-software\mcu-hal\STM32F4xx_HAL_Driver\libfoxbms-stmhal.a(stm32f4xx_hal_gpio.c.1.o)
 .comment       0x00000000       0x71 embedded-software\mcu-hal\STM32F4xx_HAL_Driver\libfoxbms-stmhal.a(stm32f4xx_hal_iwdg.c.1.o)
 .comment       0x00000000       0x71 embedded-software\mcu-hal\STM32F4xx_HAL_Driver\libfoxbms-stmhal.a(stm32f4xx_hal_pwr.c.1.o)
 .comment       0x00000000       0x71 embedded-software\mcu-hal\STM32F4xx_HAL_Driver\libfoxbms-stmhal.a(stm32f4xx_hal_pwr_ex.c.1.o)
 .comment       0x00000000       0x71 embedded-software\mcu-hal\STM32F4xx_HAL_Driver\libfoxbms-stmhal.a(stm32f4xx_hal_rcc.c.1.o)
 .comment       0x00000000       0x71 embedded-software\mcu-hal\STM32F4xx_HAL_Driver\libfoxbms-stmhal.a(stm32f4xx_hal_rcc_ex.c.1.o)
 .comment       0x00000000       0x71 embedded-software\mcu-hal\STM32F4xx_HAL_Driver\libfoxbms-stmhal.a(stm32f4xx_hal_rtc.c.1.o)
 .comment       0x00000000       0x71 embedded-software\mcu-hal\STM32F4xx_HAL_Driver\libfoxbms-stmhal.a(stm32f4xx_hal_rtc_ex.c.1.o)
 .comment       0x00000000       0x71 embedded-software\mcu-hal\STM32F4xx_HAL_Driver\libfoxbms-stmhal.a(stm32f4xx_hal_spi.c.1.o)

.debug_ranges   0x00000000     0x1918
 .debug_ranges  0x00000000       0x58 embedded-software\mcu-secondary\src\general\config\stm32f4xx_hal_msp.c.1.o
 .debug_ranges  0x00000058       0xd0 embedded-software\mcu-secondary\src\general\config\stm32f4xx_it.c.1.o
 .debug_ranges  0x00000128       0x20 embedded-software\mcu-secondary\src\general\config\system_stm32f4xx.c.1.o
 .debug_ranges  0x00000148       0x20 embedded-software\mcu-secondary\src\general\main.c.1.o
 .debug_ranges  0x00000168       0x30 embedded-software\mcu-secondary\src\general\nvic.c.1.o
 .debug_ranges  0x00000198       0x20 embedded-software\mcu-secondary\src\general\config\startup_stm32f429xx.o
 .debug_ranges  0x000001b8      0x1a0 embedded-software\mcu-freertos\libfoxbms-os.a(cmsis_os.c.1.o)
 .debug_ranges  0x00000358       0x78 embedded-software\mcu-freertos\libfoxbms-os.a(port.c.1.o)
 .debug_ranges  0x000003d0       0x40 embedded-software\mcu-freertos\libfoxbms-os.a(heap_4.c.1.o)
 .debug_ranges  0x00000410      0x108 embedded-software\mcu-freertos\libfoxbms-os.a(queue.c.1.o)
 .debug_ranges  0x00000518      0x1c8 embedded-software\mcu-freertos\libfoxbms-os.a(tasks.c.1.o)
 .debug_ranges  0x000006e0       0xa8 embedded-software\mcu-freertos\libfoxbms-os.a(timers.c.1.o)
 .debug_ranges  0x00000788       0x78 embedded-software\mcu-freertos\libfoxbms-os.a(os.c.1.o)
 .debug_ranges  0x00000800       0x30 embedded-software\mcu-freertos\libfoxbms-os.a(list.c.1.o)
 .debug_ranges  0x00000830       0x38 embedded-software\mcu-secondary\src\application\libfoxbms-application.a(appltask.c.1.o)
 .debug_ranges  0x00000868       0x20 embedded-software\mcu-secondary\src\application\libfoxbms-application.a(appltask_cfg.c.1.o)
 .debug_ranges  0x00000888       0x68 embedded-software\mcu-secondary\src\application\libfoxbms-application.a(bms.c.1.o)
 .debug_ranges  0x000008f0       0x30 embedded-software\mcu-common\src\engine\libfoxbms-common-engine.a(database.c.1.o)
 .debug_ranges  0x00000920       0xc0 embedded-software\mcu-secondary\src\engine\libfoxbms-engine.a(diag_cfg.c.1.o)
 .debug_ranges  0x000009e0       0x28 embedded-software\mcu-secondary\src\engine\libfoxbms-engine.a(enginetask_cfg.c.1.o)
 .debug_ranges  0x00000a08       0x58 embedded-software\mcu-secondary\src\engine\libfoxbms-engine.a(diag.c.1.o)
 .debug_ranges  0x00000a60       0x38 embedded-software\mcu-secondary\src\engine\libfoxbms-engine.a(enginetask.c.1.o)
 .debug_ranges  0x00000a98       0x40 embedded-software\mcu-secondary\src\engine\libfoxbms-engine.a(sys.c.1.o)
 .debug_ranges  0x00000ad8       0x18 embedded-software\mcu-secondary\src\module\libfoxbms-module.a(adc_ex.c.1.o)
 .debug_ranges  0x00000af0       0x18 embedded-software\mcu-secondary\src\module\libfoxbms-module.a(bkpsram_cfg.c.1.o)
 .debug_ranges  0x00000b08       0x20 embedded-software\mcu-secondary\src\module\libfoxbms-module.a(timer.c.1.o)
 .debug_ranges  0x00000b28       0x18 embedded-software\mcu-common\src\module\libfoxbms-common-module.a(adc.c.1.o)
 .debug_ranges  0x00000b40       0xb8 embedded-software\mcu-common\src\module\libfoxbms-common-module.a(can.c.1.o)
 .debug_ranges  0x00000bf8       0x20 embedded-software\mcu-common\src\module\libfoxbms-common-module.a(chksum.c.1.o)
 .debug_ranges  0x00000c18       0x10 embedded-software\mcu-common\src\module\libfoxbms-common-module.a(dma.c.1.o)
 .debug_ranges  0x00000c28       0x70 embedded-software\mcu-common\src\module\libfoxbms-common-module.a(interlock.c.1.o)
 .debug_ranges  0x00000c98       0x48 embedded-software\mcu-common\src\module\libfoxbms-common-module.a(io.c.1.o)
 .debug_ranges  0x00000ce0       0x10 embedded-software\mcu-common\src\module\libfoxbms-common-module.a(portcheck.c.1.o)
 .debug_ranges  0x00000cf0       0x50 embedded-software\mcu-common\src\module\libfoxbms-common-module.a(meas.c.1.o)
 .debug_ranges  0x00000d40      0x158 embedded-software\mcu-common\src\module\libfoxbms-common-module.a(ltc.c.1.o)
 .debug_ranges  0x00000e98       0x10 embedded-software\mcu-common\src\module\libfoxbms-common-module.a(ltc_pec.c.1.o)
 .debug_ranges  0x00000ea8       0x40 embedded-software\mcu-common\src\module\libfoxbms-common-module.a(mcu.c.1.o)
 .debug_ranges  0x00000ee8       0x10 embedded-software\mcu-common\src\module\libfoxbms-common-module.a(rcc.c.1.o)
 .debug_ranges  0x00000ef8       0x30 embedded-software\mcu-common\src\module\libfoxbms-common-module.a(rtc.c.1.o)
 .debug_ranges  0x00000f28       0x10 embedded-software\mcu-common\src\module\libfoxbms-common-module.a(bkpsram.c.1.o)
 .debug_ranges  0x00000f38       0x50 embedded-software\mcu-common\src\module\libfoxbms-common-module.a(spi.c.1.o)
 .debug_ranges  0x00000f88       0x18 embedded-software\mcu-common\src\module\libfoxbms-common-module.a(led.c.1.o)
 .debug_ranges  0x00000fa0       0x18 embedded-software\mcu-common\src\module\libfoxbms-common-module.a(wdg.c.1.o)
 .debug_ranges  0x00000fb8       0x20 embedded-software\mcu-common\src\module\libfoxbms-common-module.a(can_cfg.c.1.o)
 .debug_ranges  0x00000fd8       0xc0 embedded-software\mcu-hal\STM32F4xx_HAL_Driver\libfoxbms-stmhal.a(stm32f4xx_hal.c.1.o)
 .debug_ranges  0x00001098       0xd8 embedded-software\mcu-hal\STM32F4xx_HAL_Driver\libfoxbms-stmhal.a(stm32f4xx_hal_adc.c.1.o)
 .debug_ranges  0x00001170       0x80 embedded-software\mcu-hal\STM32F4xx_HAL_Driver\libfoxbms-stmhal.a(stm32f4xx_hal_adc_ex.c.1.o)
 .debug_ranges  0x000011f0       0xa0 embedded-software\mcu-hal\STM32F4xx_HAL_Driver\libfoxbms-stmhal.a(stm32f4xx_hal_can.c.1.o)
 .debug_ranges  0x00001290       0xf8 embedded-software\mcu-hal\STM32F4xx_HAL_Driver\libfoxbms-stmhal.a(stm32f4xx_hal_cortex.c.1.o)
 .debug_ranges  0x00001388       0x80 embedded-software\mcu-hal\STM32F4xx_HAL_Driver\libfoxbms-stmhal.a(stm32f4xx_hal_dma.c.1.o)
 .debug_ranges  0x00001408       0x48 embedded-software\mcu-hal\STM32F4xx_HAL_Driver\libfoxbms-stmhal.a(stm32f4xx_hal_gpio.c.1.o)
 .debug_ranges  0x00001450       0x18 embedded-software\mcu-hal\STM32F4xx_HAL_Driver\libfoxbms-stmhal.a(stm32f4xx_hal_iwdg.c.1.o)
 .debug_ranges  0x00001468       0x90 embedded-software\mcu-hal\STM32F4xx_HAL_Driver\libfoxbms-stmhal.a(stm32f4xx_hal_pwr.c.1.o)
 .debug_ranges  0x000014f8       0x50 embedded-software\mcu-hal\STM32F4xx_HAL_Driver\libfoxbms-stmhal.a(stm32f4xx_hal_pwr_ex.c.1.o)
 .debug_ranges  0x00001548       0x78 embedded-software\mcu-hal\STM32F4xx_HAL_Driver\libfoxbms-stmhal.a(stm32f4xx_hal_rcc.c.1.o)
 .debug_ranges  0x000015c0       0x20 embedded-software\mcu-hal\STM32F4xx_HAL_Driver\libfoxbms-stmhal.a(stm32f4xx_hal_rcc_ex.c.1.o)
 .debug_ranges  0x000015e0       0xa8 embedded-software\mcu-hal\STM32F4xx_HAL_Driver\libfoxbms-stmhal.a(stm32f4xx_hal_rtc.c.1.o)
 .debug_ranges  0x00001688      0x120 embedded-software\mcu-hal\STM32F4xx_HAL_Driver\libfoxbms-stmhal.a(stm32f4xx_hal_rtc_ex.c.1.o)
 .debug_ranges  0x000017a8      0x170 embedded-software\mcu-hal\STM32F4xx_HAL_Driver\libfoxbms-stmhal.a(stm32f4xx_hal_spi.c.1.o)

.debug_frame    0x00000000     0x6ba8
 .debug_frame   0x00000000      0x170 embedded-software\mcu-secondary\src\general\config\stm32f4xx_hal_msp.c.1.o
 .debug_frame   0x00000170      0x2d4 embedded-software\mcu-secondary\src\general\config\stm32f4xx_it.c.1.o
 .debug_frame   0x00000444       0x80 embedded-software\mcu-secondary\src\general\config\system_stm32f4xx.c.1.o
 .debug_frame   0x000004c4       0x70 embedded-software\mcu-secondary\src\general\main.c.1.o
 .debug_frame   0x00000534       0xbc embedded-software\mcu-secondary\src\general\nvic.c.1.o
 .debug_frame   0x000005f0      0x738 embedded-software\mcu-freertos\libfoxbms-os.a(cmsis_os.c.1.o)
 .debug_frame   0x00000d28      0x1a8 embedded-software\mcu-freertos\libfoxbms-os.a(port.c.1.o)
 .debug_frame   0x00000ed0      0x108 embedded-software\mcu-freertos\libfoxbms-os.a(heap_4.c.1.o)
 .debug_frame   0x00000fd8      0x4b4 embedded-software\mcu-freertos\libfoxbms-os.a(queue.c.1.o)
 .debug_frame   0x0000148c      0x7fc embedded-software\mcu-freertos\libfoxbms-os.a(tasks.c.1.o)
 .debug_frame   0x00001c88      0x2d8 embedded-software\mcu-freertos\libfoxbms-os.a(timers.c.1.o)
 .debug_frame   0x00001f60      0x1d0 embedded-software\mcu-freertos\libfoxbms-os.a(os.c.1.o)
 .debug_frame   0x00002130       0xd8 embedded-software\mcu-freertos\libfoxbms-os.a(list.c.1.o)
 .debug_frame   0x00002208       0xd4 embedded-software\mcu-secondary\src\application\libfoxbms-application.a(appltask.c.1.o)
 .debug_frame   0x000022dc       0x64 embedded-software\mcu-secondary\src\application\libfoxbms-application.a(appltask_cfg.c.1.o)
 .debug_frame   0x00002340      0x1c4 embedded-software\mcu-secondary\src\application\libfoxbms-application.a(bms.c.1.o)
 .debug_frame   0x00002504       0xcc embedded-software\mcu-common\src\engine\libfoxbms-common-engine.a(database.c.1.o)
 .debug_frame   0x000025d0      0x354 embedded-software\mcu-secondary\src\engine\libfoxbms-engine.a(diag_cfg.c.1.o)
 .debug_frame   0x00002924       0x94 embedded-software\mcu-secondary\src\engine\libfoxbms-engine.a(enginetask_cfg.c.1.o)
 .debug_frame   0x000029b8      0x188 embedded-software\mcu-secondary\src\engine\libfoxbms-engine.a(diag.c.1.o)
 .debug_frame   0x00002b40       0xd0 embedded-software\mcu-secondary\src\engine\libfoxbms-engine.a(enginetask.c.1.o)
 .debug_frame   0x00002c10      0x110 embedded-software\mcu-secondary\src\engine\libfoxbms-engine.a(sys.c.1.o)
 .debug_frame   0x00002d20       0x50 embedded-software\mcu-secondary\src\module\libfoxbms-module.a(adc_ex.c.1.o)
 .debug_frame   0x00002d70       0x68 embedded-software\mcu-secondary\src\module\libfoxbms-module.a(bkpsram_cfg.c.1.o)
 .debug_frame   0x00002dd8       0x70 embedded-software\mcu-secondary\src\module\libfoxbms-module.a(timer.c.1.o)
 .debug_frame   0x00002e48       0x58 embedded-software\mcu-common\src\module\libfoxbms-common-module.a(adc.c.1.o)
 .debug_frame   0x00002ea0      0x2d8 embedded-software\mcu-common\src\module\libfoxbms-common-module.a(can.c.1.o)
 .debug_frame   0x00003178       0x84 embedded-software\mcu-common\src\module\libfoxbms-common-module.a(chksum.c.1.o)
 .debug_frame   0x000031fc       0x34 embedded-software\mcu-common\src\module\libfoxbms-common-module.a(dma.c.1.o)
 .debug_frame   0x00003230      0x1e4 embedded-software\mcu-common\src\module\libfoxbms-common-module.a(interlock.c.1.o)
 .debug_frame   0x00003414      0x138 embedded-software\mcu-common\src\module\libfoxbms-common-module.a(io.c.1.o)
 .debug_frame   0x0000354c       0x38 embedded-software\mcu-common\src\module\libfoxbms-common-module.a(portcheck.c.1.o)
 .debug_frame   0x00003584      0x150 embedded-software\mcu-common\src\module\libfoxbms-common-module.a(meas.c.1.o)
 .debug_frame   0x000036d4      0x608 embedded-software\mcu-common\src\module\libfoxbms-common-module.a(ltc.c.1.o)
 .debug_frame   0x00003cdc       0x38 embedded-software\mcu-common\src\module\libfoxbms-common-module.a(ltc_pec.c.1.o)
 .debug_frame   0x00003d14      0x118 embedded-software\mcu-common\src\module\libfoxbms-common-module.a(mcu.c.1.o)
 .debug_frame   0x00003e2c       0x34 embedded-software\mcu-common\src\module\libfoxbms-common-module.a(rcc.c.1.o)
 .debug_frame   0x00003e60       0xc0 embedded-software\mcu-common\src\module\libfoxbms-common-module.a(rtc.c.1.o)
 .debug_frame   0x00003f20       0x2c embedded-software\mcu-common\src\module\libfoxbms-common-module.a(bkpsram.c.1.o)
 .debug_frame   0x00003f4c      0x154 embedded-software\mcu-common\src\module\libfoxbms-common-module.a(spi.c.1.o)
 .debug_frame   0x000040a0       0x48 embedded-software\mcu-common\src\module\libfoxbms-common-module.a(led.c.1.o)
 .debug_frame   0x000040e8       0x48 embedded-software\mcu-common\src\module\libfoxbms-common-module.a(wdg.c.1.o)
 .debug_frame   0x00004130       0x88 embedded-software\mcu-common\src\module\libfoxbms-common-module.a(can_cfg.c.1.o)
 .debug_frame   0x000041b8      0x310 embedded-software\mcu-hal\STM32F4xx_HAL_Driver\libfoxbms-stmhal.a(stm32f4xx_hal.c.1.o)
 .debug_frame   0x000044c8      0x3ec embedded-software\mcu-hal\STM32F4xx_HAL_Driver\libfoxbms-stmhal.a(stm32f4xx_hal_adc.c.1.o)
 .debug_frame   0x000048b4      0x240 embedded-software\mcu-hal\STM32F4xx_HAL_Driver\libfoxbms-stmhal.a(stm32f4xx_hal_adc_ex.c.1.o)
 .debug_frame   0x00004af4      0x2f4 embedded-software\mcu-hal\STM32F4xx_HAL_Driver\libfoxbms-stmhal.a(stm32f4xx_hal_can.c.1.o)
 .debug_frame   0x00004de8      0x44c embedded-software\mcu-hal\STM32F4xx_HAL_Driver\libfoxbms-stmhal.a(stm32f4xx_hal_cortex.c.1.o)
 .debug_frame   0x00005234      0x254 embedded-software\mcu-hal\STM32F4xx_HAL_Driver\libfoxbms-stmhal.a(stm32f4xx_hal_dma.c.1.o)
 .debug_frame   0x00005488      0x13c embedded-software\mcu-hal\STM32F4xx_HAL_Driver\libfoxbms-stmhal.a(stm32f4xx_hal_gpio.c.1.o)
 .debug_frame   0x000055c4       0x5c embedded-software\mcu-hal\STM32F4xx_HAL_Driver\libfoxbms-stmhal.a(stm32f4xx_hal_iwdg.c.1.o)
 .debug_frame   0x00005620      0x260 embedded-software\mcu-hal\STM32F4xx_HAL_Driver\libfoxbms-stmhal.a(stm32f4xx_hal_pwr.c.1.o)
 .debug_frame   0x00005880      0x158 embedded-software\mcu-hal\STM32F4xx_HAL_Driver\libfoxbms-stmhal.a(stm32f4xx_hal_pwr_ex.c.1.o)
 .debug_frame   0x000059d8      0x200 embedded-software\mcu-hal\STM32F4xx_HAL_Driver\libfoxbms-stmhal.a(stm32f4xx_hal_rcc.c.1.o)
 .debug_frame   0x00005bd8       0x80 embedded-software\mcu-hal\STM32F4xx_HAL_Driver\libfoxbms-stmhal.a(stm32f4xx_hal_rcc_ex.c.1.o)
 .debug_frame   0x00005c58      0x308 embedded-software\mcu-hal\STM32F4xx_HAL_Driver\libfoxbms-stmhal.a(stm32f4xx_hal_rtc.c.1.o)
 .debug_frame   0x00005f60      0x528 embedded-software\mcu-hal\STM32F4xx_HAL_Driver\libfoxbms-stmhal.a(stm32f4xx_hal_rtc_ex.c.1.o)
 .debug_frame   0x00006488      0x6ac embedded-software\mcu-hal\STM32F4xx_HAL_Driver\libfoxbms-stmhal.a(stm32f4xx_hal_spi.c.1.o)
 .debug_frame   0x00006b34       0x2c c:/foxconda/library/bin/../lib/gcc/arm-none-eabi/4.9.3/../../../../arm-none-eabi/lib/armv7e-m/softfp\libc_nano.a(lib_a-init.o)
 .debug_frame   0x00006b60       0x28 c:/foxconda/library/bin/../lib/gcc/arm-none-eabi/4.9.3/../../../../arm-none-eabi/lib/armv7e-m/softfp\libc_nano.a(lib_a-memcpy.o)
 .debug_frame   0x00006b88       0x20 c:/foxconda/library/bin/../lib/gcc/arm-none-eabi/4.9.3/../../../../arm-none-eabi/lib/armv7e-m/softfp\libc_nano.a(lib_a-memset.o)
